(dp0
I0
c__builtin__
set
p1
((lp2
I6
aI7
atp3
Rp4
sI1
g1
((lp5
I8
aI10
atp6
Rp7
sI2
g1
((lp8
I11
aI25
aI3
atp9
Rp10
sI3
g1
((lp11
I2
aI4
atp12
Rp13
sI4
g1
((lp14
I3
aI12
aI5
atp15
Rp16
sI5
g1
((lp17
I4
aI45
atp18
Rp19
sI6
g1
((lp20
I0
aI9
aI7
atp21
Rp22
sI7
g1
((lp23
I0
aI13
aI6
atp24
Rp25
sI8
g1
((lp26
I1
aI10
aI14
atp27
Rp28
sI9
g1
((lp29
I16
aI35
aI27
aI6
atp30
Rp31
sI10
g1
((lp32
I1
aI36
aI8
aI14
aI20
aI28
atp33
Rp34
sI11
g1
((lp35
I25
aI2
atp36
Rp37
sI12
g1
((lp38
I4
aI15
atp39
Rp40
sI13
g1
((lp41
I16
aI7
atp42
Rp43
sI14
g1
((lp44
I8
aI10
atp45
Rp46
sI15
g1
((lp47
I18
aI12
aI45
aI31
atp48
Rp49
sI16
g1
((lp50
I32
aI9
aI19
aI13
atp51
Rp52
sI17
g1
((lp53
I25
atp54
Rp55
sI18
g1
((lp56
I15
atp57
Rp58
sI19
g1
((lp59
I16
aI29
atp60
Rp61
sI20
g1
((lp62
I10
aI30
atp63
Rp64
sI21
g1
((lp65
I85
aI22
atp66
Rp67
sI22
g1
((lp68
I61
aI60
aI21
aI23
atp69
Rp70
sI23
g1
((lp71
I24
aI62
aI22
aI63
atp72
Rp73
sI24
g1
((lp74
I44
aI86
aI23
atp75
Rp76
sI25
g1
((lp77
I17
aI2
aI11
aI44
aI87
atp78
Rp79
sI26
g1
((lp80
I45
aI49
aI50
aI51
aI52
aI27
atp81
Rp82
sI27
g1
((lp83
I65
aI35
aI9
aI53
aI54
aI26
atp84
Rp85
sI28
g1
((lp86
I88
aI10
aI36
atp87
Rp88
sI29
g1
((lp89
I32
aI33
aI19
atp90
Rp91
sI30
g1
((lp92
I20
aI34
aI36
atp93
Rp94
sI31
g1
((lp95
I45
aI15
atp96
Rp97
sI32
g1
((lp98
I16
aI33
aI35
aI29
atp99
Rp100
sI33
g1
((lp101
I32
aI29
aI37
atp102
Rp103
sI34
g1
((lp104
I36
aI38
aI30
atp105
Rp106
sI35
g1
((lp107
I32
aI40
aI66
aI27
aI9
atp108
Rp109
sI36
g1
((lp110
I34
aI67
aI38
aI10
aI43
aI28
aI30
atp111
Rp112
sI37
g1
((lp113
I40
aI33
atp114
Rp115
sI38
g1
((lp116
I34
aI36
atp117
Rp118
sI39
g1
((lp119
I41
aI45
atp120
Rp121
sI40
g1
((lp122
I42
aI35
aI37
aI55
atp123
Rp124
sI41
g1
((lp125
I39
atp126
Rp127
sI42
g1
((lp128
I40
aI46
atp129
Rp130
sI43
g1
((lp131
I36
aI47
atp132
Rp133
sI44
g1
((lp134
I86
aI119
aI120
aI117
aI118
aI87
aI24
aI25
atp135
Rp136
sI45
g1
((lp137
I64
aI99
aI68
aI5
aI39
aI15
aI176
aI26
aI31
atp138
Rp139
sI46
g1
((lp140
I42
aI58
aI55
atp141
Rp142
sI47
g1
((lp143
I43
aI67
aI59
atp144
Rp145
sI48
g1
((lp146
I87
atp147
Rp148
sI49
g1
((lp149
I50
aI68
aI26
aI69
atp150
Rp151
sI50
g1
((lp152
I49
aI26
aI51
aI70
aI71
atp153
Rp154
sI51
g1
((lp155
I72
aI73
aI50
aI52
aI26
atp156
Rp157
sI52
g1
((lp158
I75
aI26
aI51
aI74
aI53
atp159
Rp160
sI53
g1
((lp161
I76
aI27
aI52
aI77
aI54
atp162
Rp163
sI54
g1
((lp164
I65
aI27
aI53
aI78
aI79
atp165
Rp166
sI55
g1
((lp167
I40
aI58
aI66
aI46
atp168
Rp169
sI56
g1
((lp170
I57
atp171
Rp172
sI57
g1
((lp173
I56
aI64
atp174
Rp175
sI58
g1
((lp176
I46
aI55
atp177
Rp178
sI59
g1
((lp179
I80
aI67
aI47
atp180
Rp181
sI60
g1
((lp182
I96
aI61
aI22
aI85
atp183
Rp184
sI61
g1
((lp185
I90
aI91
aI60
aI22
aI62
atp186
Rp187
sI62
g1
((lp188
I23
aI92
aI61
aI93
aI63
atp189
Rp190
sI63
g1
((lp191
I97
aI86
aI62
aI23
atp192
Rp193
sI64
g1
((lp194
I57
aI82
aI99
aI45
atp195
Rp196
sI65
g1
((lp197
I66
aI27
aI100
aI54
aI79
atp198
Rp199
sI66
g1
((lp200
I65
aI83
aI101
aI35
aI55
atp201
Rp202
sI67
g1
((lp203
I36
aI102
aI47
aI80
aI84
aI88
aI59
atp204
Rp205
sI68
g1
((lp206
I49
aI45
aI69
atp207
Rp208
sI69
g1
((lp209
I49
aI68
aI70
atp210
Rp211
sI70
g1
((lp212
I50
aI69
aI71
atp213
Rp214
sI71
g1
((lp215
I72
aI50
aI70
atp216
Rp217
sI72
g1
((lp218
I73
aI51
aI71
atp219
Rp220
sI73
g1
((lp221
I72
aI74
aI51
atp222
Rp223
sI74
g1
((lp224
I73
aI75
aI52
atp225
Rp226
sI75
g1
((lp227
I52
aI74
aI76
atp228
Rp229
sI76
g1
((lp230
I75
aI77
aI53
atp231
Rp232
sI77
g1
((lp233
I76
aI53
aI78
atp234
Rp235
sI78
g1
((lp236
I77
aI54
aI79
atp237
Rp238
sI79
g1
((lp239
I65
aI54
aI78
atp240
Rp241
sI80
g1
((lp242
I59
aI67
atp243
Rp244
sI81
g1
((lp245
I82
aI98
aI87
atp246
Rp247
sI82
g1
((lp248
I64
aI81
aI98
atp249
Rp250
sI83
g1
((lp251
I66
aI94
atp252
Rp253
sI84
g1
((lp254
I89
aI67
atp255
Rp256
sI85
g1
((lp257
I96
aI128
aI60
aI21
atp258
Rp259
sI86
g1
((lp260
I97
aI44
aI115
aI116
aI24
aI63
atp261
Rp262
sI87
g1
((lp263
I98
aI44
aI175
aI48
aI81
aI25
atp264
Rp265
sI88
g1
((lp266
I129
aI67
aI28
aI102
atp267
Rp268
sI89
g1
((lp269
I84
aI102
aI95
atp270
Rp271
sI90
g1
((lp272
I96
aI91
aI61
aI103
atp273
Rp274
sI91
g1
((lp275
I90
aI92
aI61
atp276
Rp277
sI92
g1
((lp278
I104
aI105
aI91
aI93
aI62
atp279
Rp280
sI93
g1
((lp281
I97
aI92
aI62
atp282
Rp283
sI94
g1
((lp284
I83
aI101
atp285
Rp286
sI95
g1
((lp287
I89
aI102
atp288
Rp289
sI96
g1
((lp290
I113
aI90
aI60
aI85
aI103
atp291
Rp292
sI97
g1
((lp293
I106
aI114
aI93
aI86
aI63
atp294
Rp295
sI98
g1
((lp296
I81
aI82
aI99
aI87
atp297
Rp298
sI99
g1
((lp299
I64
aI98
aI45
aI175
atp300
Rp301
sI100
g1
((lp302
I65
aI101
aI121
atp303
Rp304
sI101
g1
((lp305
I66
aI107
aI100
aI122
aI94
atp306
Rp307
sI102
g1
((lp308
I67
aI108
aI88
aI89
aI123
aI95
atp309
Rp310
sI103
g1
((lp311
I96
aI90
atp312
Rp313
sI104
g1
((lp314
I105
aI92
atp315
Rp316
sI105
g1
((lp317
I104
aI106
aI92
atp318
Rp319
sI106
g1
((lp320
I105
aI109
aI110
aI97
atp321
Rp322
sI107
g1
((lp323
I101
aI111
atp324
Rp325
sI108
g1
((lp326
I112
aI102
atp327
Rp328
sI109
g1
((lp329
I106
atp330
Rp331
sI110
g1
((lp332
I114
aI106
atp333
Rp334
sI111
g1
((lp335
I122
aI107
atp336
Rp337
sI112
g1
((lp338
I123
aI108
atp339
Rp340
sI113
g1
((lp341
I96
aI128
aI153
atp342
Rp343
sI114
g1
((lp344
I97
aI154
aI115
aI124
aI110
atp345
Rp346
sI115
g1
((lp347
I114
aI155
aI116
aI86
atp348
Rp349
sI116
g1
((lp350
I132
aI133
aI139
aI115
aI117
aI86
atp351
Rp352
sI117
g1
((lp353
I44
aI140
aI116
aI141
aI118
atp354
Rp355
sI118
g1
((lp356
I156
aI44
aI117
aI119
atp357
Rp358
sI119
g1
((lp359
I134
aI135
aI44
aI142
aI118
aI120
atp360
Rp361
sI120
g1
((lp362
I175
aI44
aI157
aI119
atp363
Rp364
sI121
g1
((lp365
I122
aI100
aI158
atp366
Rp367
sI122
g1
((lp368
I121
aI159
aI101
aI125
aI111
atp369
Rp370
sI123
g1
((lp371
I112
aI129
aI160
aI126
aI102
atp372
Rp373
sI124
g1
((lp374
I114
aI138
aI127
atp375
Rp376
sI125
g1
((lp377
I122
aI143
atp378
Rp379
sI126
g1
((lp380
I136
aI137
aI123
atp381
Rp382
sI127
g1
((lp383
I131
aI124
atp384
Rp385
sI128
g1
((lp386
I113
aI85
aI214
aI153
atp387
Rp388
sI129
g1
((lp389
I88
aI160
aI123
aI217
atp390
Rp391
sI130
g1
((lp392
I144
aI153
atp393
Rp394
sI131
g1
((lp395
I138
aI149
aI127
atp396
Rp397
sI132
g1
((lp398
I139
aI116
aI133
atp399
Rp400
sI133
g1
((lp401
I140
aI132
aI150
aI116
atp402
Rp403
sI134
g1
((lp404
I156
aI119
aI151
aI135
atp405
Rp406
sI135
g1
((lp407
I142
aI134
aI119
atp408
Rp409
sI136
g1
((lp410
I137
aI126
atp411
Rp412
sI137
g1
((lp413
I136
aI160
aI152
aI126
atp414
Rp415
sI138
g1
((lp416
I154
aI131
aI124
aI149
atp417
Rp418
sI139
g1
((lp419
I116
aI155
aI132
aI161
atp420
Rp421
sI140
g1
((lp422
I162
aI163
aI133
aI141
aI117
aI150
atp423
Rp424
sI141
g1
((lp425
I156
aI140
aI117
atp426
Rp427
sI142
g1
((lp428
I165
aI119
aI157
aI135
atp429
Rp430
sI143
g1
((lp431
I125
aI159
atp432
Rp433
sI144
g1
((lp434
I145
aI130
aI153
atp435
Rp436
sI145
g1
((lp437
I144
aI146
atp438
Rp439
sI146
g1
((lp440
I145
aI147
atp441
Rp442
sI147
g1
((lp443
I146
aI148
atp444
Rp445
sI148
g1
((lp446
I147
aI149
atp447
Rp448
sI149
g1
((lp449
I138
aI131
aI148
atp450
Rp451
sI150
g1
((lp452
I140
aI133
atp453
Rp454
sI151
g1
((lp455
I164
aI156
aI134
atp456
Rp457
sI152
g1
((lp458
I160
aI137
aI166
atp459
Rp460
sI153
g1
((lp461
I128
aI130
aI167
aI144
aI113
aI215
atp462
Rp463
sI154
g1
((lp464
I216
aI138
aI155
aI114
aI170
atp465
Rp466
sI155
g1
((lp467
I161
aI139
aI177
aI178
aI115
aI183
aI154
atp468
Rp469
sI156
g1
((lp470
I164
aI134
aI171
aI141
aI179
aI118
aI151
aI185
atp471
Rp472
sI157
g1
((lp473
I165
aI142
aI175
aI180
aI120
aI186
atp474
Rp475
sI158
g1
((lp476
I121
aI191
aI159
atp477
Rp478
sI159
g1
((lp479
I192
aI122
aI172
aI158
aI143
atp480
Rp481
sI160
g1
((lp482
I129
aI166
aI193
aI137
aI174
aI152
aI123
atp483
Rp484
sI161
g1
((lp485
I155
aI139
atp486
Rp487
sI162
g1
((lp488
I163
aI140
atp489
Rp490
sI163
g1
((lp491
I162
aI171
aI140
atp492
Rp493
sI164
g1
((lp494
I156
aI151
atp495
Rp496
sI165
g1
((lp497
I157
aI142
atp498
Rp499
sI166
g1
((lp500
I160
aI152
atp501
Rp502
sI167
g1
((lp503
I168
aI153
atp504
Rp505
sI168
g1
((lp506
I169
aI215
aI167
atp507
Rp508
sI169
g1
((lp509
I168
aI216
aI170
atp510
Rp511
sI170
g1
((lp512
I216
aI169
aI154
atp513
Rp514
sI171
g1
((lp515
I184
aI163
aI156
aI173
atp516
Rp517
sI172
g1
((lp518
I187
aI159
atp519
Rp520
sI173
g1
((lp521
I171
atp522
Rp523
sI174
g1
((lp524
I160
aI182
atp525
Rp526
sI175
g1
((lp527
I99
aI326
aI199
aI231
aI237
aI176
aI211
aI87
aI120
aI186
aI157
atp528
Rp529
sI176
g1
((lp530
I259
aI260
aI45
aI175
aI242
aI243
aI244
aI245
aI246
aI247
aI252
atp531
Rp532
sI177
g1
((lp533
I178
aI155
aI188
aI183
atp534
Rp535
sI178
g1
((lp536
I177
aI155
atp537
Rp538
sI179
g1
((lp539
I185
aI156
atp540
Rp541
sI180
g1
((lp542
I186
aI157
atp543
Rp544
sI181
g1
((lp545
I187
aI189
atp546
Rp547
sI182
g1
((lp548
I193
aI190
aI174
atp549
Rp550
sI183
g1
((lp551
I194
aI195
aI177
aI216
aI155
aI188
atp552
Rp553
sI184
g1
((lp554
I185
aI171
aI196
atp555
Rp556
sI185
g1
((lp557
I184
aI179
aI156
aI197
atp558
Rp559
sI186
g1
((lp560
I199
aI180
aI157
aI198
aI175
atp561
Rp562
sI187
g1
((lp563
I192
aI172
aI181
aI189
atp564
Rp565
sI188
g1
((lp566
I177
aI183
atp567
Rp568
sI189
g1
((lp569
I200
aI187
aI181
atp570
Rp571
sI190
g1
((lp572
I193
aI182
aI201
atp573
Rp574
sI191
g1
((lp575
I192
aI228
aI158
aI207
atp576
Rp577
sI192
g1
((lp578
I208
aI187
aI159
aI229
aI191
atp579
Rp580
sI193
g1
((lp581
I160
aI230
aI201
aI213
aI182
aI217
aI190
atp582
Rp583
sI194
g1
((lp584
I216
aI195
aI183
atp585
Rp586
sI195
g1
((lp587
I194
aI183
atp588
Rp589
sI196
g1
((lp590
I184
aI197
atp591
Rp592
sI197
g1
((lp593
I185
aI196
atp594
Rp595
sI198
g1
((lp596
I186
aI199
atp597
Rp598
sI199
g1
((lp599
I186
aI198
aI175
atp600
Rp601
sI200
g1
((lp602
I208
aI189
atp603
Rp604
sI201
g1
((lp605
I193
aI190
atp606
Rp607
sI202
g1
((lp608
I225
aI203
atp609
Rp610
sI203
g1
((lp611
I225
aI202
aI204
atp612
Rp613
sI204
g1
((lp614
I226
aI203
aI205
atp615
Rp616
sI205
g1
((lp617
I226
aI204
aI206
atp618
Rp619
sI206
g1
((lp620
I227
aI205
aI207
atp621
Rp622
sI207
g1
((lp623
I227
aI206
aI191
atp624
Rp625
sI208
g1
((lp626
I192
aI200
aI212
aI221
atp627
Rp628
sI209
g1
((lp629
I216
aI218
atp630
Rp631
sI210
g1
((lp632
tp633
Rp634
sI211
g1
((lp635
I175
atp636
Rp637
sI212
g1
((lp638
I208
aI219
atp639
Rp640
sI213
g1
((lp641
I193
aI220
atp642
Rp643
sI214
g1
((lp644
I128
aI325
aI215
atp645
Rp646
sI215
g1
((lp647
I216
aI153
aI168
aI325
aI214
atp648
Rp649
sI216
g1
((lp650
I194
aI169
aI234
aI215
aI209
aI183
aI280
aI154
aI170
aI222
atp651
Rp652
sI217
g1
((lp653
I193
aI281
aI230
aI129
atp654
Rp655
sI218
g1
((lp656
I209
aI222
atp657
Rp658
sI219
g1
((lp659
I212
aI221
aI223
atp660
Rp661
sI220
g1
((lp662
I224
aI213
aI230
atp663
Rp664
sI221
g1
((lp665
I208
aI219
aI229
aI223
atp666
Rp667
sI222
g1
((lp668
I216
aI218
atp669
Rp670
sI223
g1
((lp671
I232
aI219
aI221
atp672
Rp673
sI224
g1
((lp674
I233
aI220
aI230
atp675
Rp676
sI225
g1
((lp677
I226
aI203
aI202
aI261
atp678
Rp679
sI226
g1
((lp680
I225
aI227
aI204
aI205
aI262
atp681
Rp682
sI227
g1
((lp683
I226
aI263
aI228
aI206
aI207
atp684
Rp685
sI228
g1
((lp686
I264
aI227
aI229
aI191
atp687
Rp688
sI229
g1
((lp689
I192
aI265
aI235
aI228
aI221
atp690
Rp691
sI230
g1
((lp692
I224
aI193
aI233
aI266
aI239
aI217
aI220
atp693
Rp694
sI231
g1
((lp695
I175
atp696
Rp697
sI232
g1
((lp698
I235
aI223
atp699
Rp700
sI233
g1
((lp701
I224
aI230
atp702
Rp703
sI234
g1
((lp704
I216
aI250
atp705
Rp706
sI235
g1
((lp707
I232
aI229
aI238
aI253
atp708
Rp709
sI236
g1
((lp710
I251
aI237
atp711
Rp712
sI237
g1
((lp713
I251
aI236
aI175
atp714
Rp715
sI238
g1
((lp716
I248
aI235
atp717
Rp718
sI239
g1
((lp719
I249
aI230
atp720
Rp721
sI240
g1
((lp722
I250
aI254
atp723
Rp724
sI241
g1
((lp725
I256
aI251
atp726
Rp727
sI242
g1
((lp728
I176
aI243
aI252
atp729
Rp730
sI243
g1
((lp731
I176
aI242
aI244
atp732
Rp733
sI244
g1
((lp734
I176
aI243
aI245
atp735
Rp736
sI245
g1
((lp737
I176
aI244
aI246
atp738
Rp739
sI246
g1
((lp740
I176
aI245
aI247
atp741
Rp742
sI247
g1
((lp743
I176
aI260
aI246
atp744
Rp745
sI248
g1
((lp746
I257
aI253
aI238
atp747
Rp748
sI249
g1
((lp749
I266
aI258
aI239
atp750
Rp751
sI250
g1
((lp752
I240
aI280
aI234
aI254
atp753
Rp754
sI251
g1
((lp755
I256
aI241
aI236
aI237
aI326
atp756
Rp757
sI252
g1
((lp758
I176
aI242
aI259
atp759
Rp760
sI253
g1
((lp761
I248
aI257
aI235
aI265
atp762
Rp763
sI254
g1
((lp764
I240
aI250
aI255
atp765
Rp766
sI255
g1
((lp767
I254
atp768
Rp769
sI256
g1
((lp770
I241
aI251
atp771
Rp772
sI257
g1
((lp773
I248
aI268
aI253
atp774
Rp775
sI258
g1
((lp776
I249
aI266
aI269
atp777
Rp778
sI259
g1
((lp779
I291
aI292
aI326
aI176
aI274
aI252
atp780
Rp781
sI260
g1
((lp782
I176
aI295
aI261
aI294
aI247
atp783
Rp784
sI261
g1
((lp785
I225
aI260
aI262
aI284
atp786
Rp787
sI262
g1
((lp788
I226
aI261
aI263
atp789
Rp790
sI263
g1
((lp791
I264
aI227
aI262
atp792
Rp793
sI264
g1
((lp794
I265
aI228
aI300
aI263
atp795
Rp796
sI265
g1
((lp797
I264
aI301
aI275
aI253
aI229
atp798
Rp799
sI266
g1
((lp800
I258
aI230
aI269
aI302
aI279
aI249
aI281
atp801
Rp802
sI267
g1
((lp803
I271
atp804
Rp805
sI268
g1
((lp806
I257
aI275
atp807
Rp808
sI269
g1
((lp809
I266
aI258
atp810
Rp811
sI270
g1
((lp812
I280
aI287
aI271
atp813
Rp814
sI271
g1
((lp815
I288
aI267
aI276
aI270
atp816
Rp817
sI272
g1
((lp818
I273
aI277
aI289
atp819
Rp820
sI273
g1
((lp821
I272
aI290
aI326
atp822
Rp823
sI274
g1
((lp824
I259
aI293
atp825
Rp826
sI275
g1
((lp827
I296
aI265
aI268
aI278
atp828
Rp829
sI276
g1
((lp830
I282
aI271
atp831
Rp832
sI277
g1
((lp833
I272
aI283
atp834
Rp835
sI278
g1
((lp836
I275
aI285
atp837
Rp838
sI279
g1
((lp839
I266
aI286
atp840
Rp841
sI280
g1
((lp842
I352
aI325
aI270
aI216
aI250
aI318
aI287
atp843
Rp844
sI281
g1
((lp845
I217
aI266
aI302
aI353
atp846
Rp847
sI282
g1
((lp848
I288
aI297
aI276
atp849
Rp850
sI283
g1
((lp851
I289
aI277
atp852
Rp853
sI284
g1
((lp854
I261
aI295
atp855
Rp856
sI285
g1
((lp857
I296
aI298
aI278
atp858
Rp859
sI286
g1
((lp860
I299
aI302
aI279
atp861
Rp862
sI287
g1
((lp863
I280
aI288
aI270
atp864
Rp865
sI288
g1
((lp866
I297
aI271
aI304
aI282
aI303
aI287
atp867
Rp868
sI289
g1
((lp869
I272
aI305
aI290
aI283
atp870
Rp871
sI290
g1
((lp872
I289
aI326
aI273
atp873
Rp874
sI291
g1
((lp875
I307
aI306
aI259
aI292
aI326
atp876
Rp877
sI292
g1
((lp878
I259
aI291
aI308
aI293
aI309
atp879
Rp880
sI293
g1
((lp881
I274
aI292
aI310
aI311
atp882
Rp883
sI294
g1
((lp884
I312
aI313
aI260
aI295
atp885
Rp886
sI295
g1
((lp887
I260
aI314
aI315
aI284
aI294
atp888
Rp889
sI296
g1
((lp890
I298
aI275
aI285
aI301
atp891
Rp892
sI297
g1
((lp893
I288
aI282
atp894
Rp895
sI298
g1
((lp896
I296
aI316
aI285
atp897
Rp898
sI299
g1
((lp899
I286
aI302
aI317
atp900
Rp901
sI300
g1
((lp902
I264
aI340
aI301
atp903
Rp904
sI301
g1
((lp905
I296
aI320
aI300
aI341
aI265
atp906
Rp907
sI302
g1
((lp908
I324
aI266
aI299
aI342
aI281
aI317
aI286
atp909
Rp910
sI303
g1
((lp911
I304
aI288
aI318
atp912
Rp913
sI304
g1
((lp914
I288
aI303
atp915
Rp916
sI305
g1
((lp917
I289
aI319
atp918
Rp919
sI306
g1
((lp920
I291
aI307
atp921
Rp922
sI307
g1
((lp923
I306
aI291
aI308
atp924
Rp925
sI308
g1
((lp926
I307
aI292
aI309
atp927
Rp928
sI309
g1
((lp929
I292
aI308
aI310
atp930
Rp931
sI310
g1
((lp932
I293
aI309
aI311
atp933
Rp934
sI311
g1
((lp935
I293
aI310
atp936
Rp937
sI312
g1
((lp938
I313
aI294
atp939
Rp940
sI313
g1
((lp941
I312
aI314
aI294
atp942
Rp943
sI314
g1
((lp944
I313
aI315
aI295
atp945
Rp946
sI315
g1
((lp947
I314
aI295
atp948
Rp949
sI316
g1
((lp950
I320
aI298
atp951
Rp952
sI317
g1
((lp953
I299
aI302
atp954
Rp955
sI318
g1
((lp956
I280
aI321
aI327
aI328
aI303
atp957
Rp958
sI319
g1
((lp959
I305
aI330
aI326
aI329
atp960
Rp961
sI320
g1
((lp962
I323
aI316
aI301
aI334
atp963
Rp964
sI321
g1
((lp965
I318
atp966
Rp967
sI322
g1
((lp968
I331
aI326
atp969
Rp970
sI323
g1
((lp971
I320
aI332
atp972
Rp973
sI324
g1
((lp974
I333
aI302
atp975
Rp976
sI325
g1
((lp977
I352
aI214
aI215
aI280
aI410
aI411
aI412
aI413
atp978
Rp979
sI326
g1
((lp980
I464
aI290
aI259
aI356
aI379
aI330
aI331
aI322
aI366
aI175
aI336
aI273
aI291
aI463
aI365
aI344
aI355
aI251
aI380
aI349
aI319
atp981
Rp982
sI327
g1
((lp983
I328
aI352
aI318
aI335
atp984
Rp985
sI328
g1
((lp986
I318
aI327
atp987
Rp988
sI329
g1
((lp989
I330
aI319
atp990
Rp991
sI330
g1
((lp992
I336
aI329
aI326
aI319
atp993
Rp994
sI331
g1
((lp995
I337
aI322
aI326
atp996
Rp997
sI332
g1
((lp998
I338
aI323
aI334
atp999
Rp1000
sI333
g1
((lp1001
I339
aI324
aI342
atp1002
Rp1003
sI334
g1
((lp1004
I320
aI338
aI332
aI341
atp1005
Rp1006
sI335
g1
((lp1007
I352
aI343
aI327
atp1008
Rp1009
sI336
g1
((lp1010
I330
aI326
atp1011
Rp1012
sI337
g1
((lp1013
I344
aI331
atp1014
Rp1015
sI338
g1
((lp1016
I345
aI332
aI334
atp1017
Rp1018
sI339
g1
((lp1019
I346
aI333
aI342
atp1020
Rp1021
sI340
g1
((lp1022
I369
aI300
aI341
atp1023
Rp1024
sI341
g1
((lp1025
I370
aI347
aI340
aI301
aI334
atp1026
Rp1027
sI342
g1
((lp1028
I353
aI371
aI333
aI302
aI339
aI346
aI351
atp1029
Rp1030
sI343
g1
((lp1031
I352
aI335
atp1032
Rp1033
sI344
g1
((lp1034
I337
aI326
atp1035
Rp1036
sI345
g1
((lp1037
I338
aI347
atp1038
Rp1039
sI346
g1
((lp1040
I339
aI342
atp1041
Rp1042
sI347
g1
((lp1043
I360
aI345
aI341
aI350
atp1044
Rp1045
sI348
g1
((lp1046
I352
aI359
atp1047
Rp1048
sI349
g1
((lp1049
I356
aI326
atp1050
Rp1051
sI350
g1
((lp1052
I347
aI357
atp1053
Rp1054
sI351
g1
((lp1055
I358
aI342
atp1056
Rp1057
sI352
g1
((lp1058
I325
aI359
aI327
aI461
aI335
aI280
aI343
aI376
aI348
atp1059
Rp1060
sI353
g1
((lp1061
I403
aI400
aI401
aI402
aI371
aI342
aI281
atp1062
Rp1063
sI354
g1
((lp1064
I362
atp1065
Rp1066
sI355
g1
((lp1067
I365
aI326
atp1068
Rp1069
sI356
g1
((lp1070
I366
aI349
aI326
atp1071
Rp1072
sI357
g1
((lp1073
I360
aI350
aI367
atp1074
Rp1075
sI358
g1
((lp1076
I368
aI371
aI351
atp1077
Rp1078
sI359
g1
((lp1079
I352
aI348
atp1080
Rp1081
sI360
g1
((lp1082
I370
aI347
aI357
aI367
atp1083
Rp1084
sI361
g1
((lp1085
I362
atp1086
Rp1087
sI362
g1
((lp1088
I361
aI354
aI363
atp1089
Rp1090
sI363
g1
((lp1091
I362
atp1092
Rp1093
sI364
g1
((lp1094
I365
atp1095
Rp1096
sI365
g1
((lp1097
I355
aI364
aI326
atp1098
Rp1099
sI366
g1
((lp1100
I356
aI326
atp1101
Rp1102
sI367
g1
((lp1103
I360
aI357
aI374
atp1104
Rp1105
sI368
g1
((lp1106
I371
aI358
aI375
atp1107
Rp1108
sI369
g1
((lp1109
I370
aI340
aI418
atp1110
Rp1111
sI370
g1
((lp1112
I360
aI369
aI419
aI341
aI385
atp1113
Rp1114
sI371
g1
((lp1115
I353
aI358
aI392
aI398
aI399
aI368
aI342
aI375
atp1116
Rp1117
sI372
g1
((lp1118
I376
atp1119
Rp1120
sI373
g1
((lp1121
I379
atp1122
Rp1123
sI374
g1
((lp1124
I385
aI367
atp1125
Rp1126
sI375
g1
((lp1127
I368
aI371
atp1128
Rp1129
sI376
g1
((lp1130
I352
aI386
aI372
aI414
atp1131
Rp1132
sI377
g1
((lp1133
I378
aI388
atp1134
Rp1135
sI378
g1
((lp1136
I377
atp1137
Rp1138
sI379
g1
((lp1139
I373
aI326
aI390
atp1140
Rp1141
sI380
g1
((lp1142
I416
aI381
aI326
atp1143
Rp1144
sI381
g1
((lp1145
I416
aI380
aI382
atp1146
Rp1147
sI382
g1
((lp1148
I396
aI381
atp1149
Rp1150
sI383
g1
((lp1151
I384
aI417
atp1152
Rp1153
sI384
g1
((lp1154
I417
aI383
atp1155
Rp1156
sI385
g1
((lp1157
I370
aI397
aI374
aI391
atp1158
Rp1159
sI386
g1
((lp1160
I376
aI387
atp1161
Rp1162
sI387
g1
((lp1163
I386
aI414
atp1164
Rp1165
sI388
g1
((lp1166
I377
atp1167
Rp1168
sI389
g1
((lp1169
tp1170
Rp1171
sI390
g1
((lp1172
I379
atp1173
Rp1174
sI391
g1
((lp1175
I385
aI394
atp1176
Rp1177
sI392
g1
((lp1178
I371
aI395
atp1179
Rp1180
sI393
g1
((lp1181
I404
aI414
atp1182
Rp1183
sI394
g1
((lp1184
I407
aI397
aI391
atp1185
Rp1186
sI395
g1
((lp1187
I392
aI409
aI398
atp1188
Rp1189
sI396
g1
((lp1190
I416
aI382
atp1191
Rp1192
sI397
g1
((lp1193
I385
aI394
aI419
aI407
atp1194
Rp1195
sI398
g1
((lp1196
I395
aI428
aI429
aI399
aI371
aI409
atp1197
Rp1198
sI399
g1
((lp1199
I400
aI371
aI430
aI398
aI431
atp1200
Rp1201
sI400
g1
((lp1202
I432
aI401
aI353
aI433
aI399
atp1203
Rp1204
sI401
g1
((lp1205
I400
aI353
aI402
aI435
aI434
atp1206
Rp1207
sI402
g1
((lp1208
I401
aI403
aI436
aI437
aI353
atp1209
Rp1210
sI403
g1
((lp1211
I353
aI402
aI438
aI439
atp1212
Rp1213
sI404
g1
((lp1214
I393
aI414
atp1215
Rp1216
sI405
g1
((lp1217
tp1218
Rp1219
sI406
g1
((lp1220
I415
atp1221
Rp1222
sI407
g1
((lp1223
I408
aI394
aI397
atp1224
Rp1225
sI408
g1
((lp1226
I407
atp1227
Rp1228
sI409
g1
((lp1229
I395
aI427
aI398
atp1230
Rp1231
sI410
g1
((lp1232
I411
aI325
atp1233
Rp1234
sI411
g1
((lp1235
I410
aI412
aI325
atp1236
Rp1237
sI412
g1
((lp1238
I411
aI413
aI325
atp1239
Rp1240
sI413
g1
((lp1241
I476
aI412
aI461
aI325
atp1242
Rp1243
sI414
g1
((lp1244
I387
aI393
aI461
aI376
aI404
aI440
aI477
atp1245
Rp1246
sI415
g1
((lp1247
I480
aI443
aI406
aI463
atp1248
Rp1249
sI416
g1
((lp1250
I481
aI380
aI396
aI464
aI444
aI381
atp1251
Rp1252
sI417
g1
((lp1253
I384
aI482
aI383
atp1254
Rp1255
sI418
g1
((lp1256
I369
aI419
aI460
aI486
atp1257
Rp1258
sI419
g1
((lp1259
I418
aI370
aI487
aI397
aI445
atp1260
Rp1261
sI420
g1
((lp1262
I448
aI421
atp1263
Rp1264
sI421
g1
((lp1265
I420
aI422
atp1266
Rp1267
sI422
g1
((lp1268
I421
aI423
atp1269
Rp1270
sI423
g1
((lp1271
I424
aI422
atp1272
Rp1273
sI424
g1
((lp1274
I425
aI423
atp1275
Rp1276
sI425
g1
((lp1277
I424
aI426
atp1278
Rp1279
sI426
g1
((lp1280
I425
aI427
atp1281
Rp1282
sI427
g1
((lp1283
I409
aI426
aI428
atp1284
Rp1285
sI428
g1
((lp1286
I427
aI429
aI398
atp1287
Rp1288
sI429
g1
((lp1289
I428
aI398
aI430
atp1290
Rp1291
sI430
g1
((lp1292
I399
aI429
aI431
atp1293
Rp1294
sI431
g1
((lp1295
I432
aI430
aI399
atp1296
Rp1297
sI432
g1
((lp1298
I400
aI433
aI431
atp1299
Rp1300
sI433
g1
((lp1301
I432
aI400
aI434
atp1302
Rp1303
sI434
g1
((lp1304
I433
aI435
aI401
atp1305
Rp1306
sI435
g1
((lp1307
I401
aI434
aI436
atp1308
Rp1309
sI436
g1
((lp1310
I402
aI435
aI437
atp1311
Rp1312
sI437
g1
((lp1313
I402
aI436
aI438
atp1314
Rp1315
sI438
g1
((lp1316
I403
aI437
aI439
atp1317
Rp1318
sI439
g1
((lp1319
I403
aI438
atp1320
Rp1321
sI440
g1
((lp1322
I441
aI478
aI414
atp1323
Rp1324
sI441
g1
((lp1325
I440
aI478
aI462
atp1326
Rp1327
sI442
g1
((lp1328
I443
aI462
aI479
atp1329
Rp1330
sI443
g1
((lp1331
I442
aI479
aI415
atp1332
Rp1333
sI444
g1
((lp1334
I416
aI467
atp1335
Rp1336
sI445
g1
((lp1337
I488
aI419
aI446
atp1338
Rp1339
sI446
g1
((lp1340
I488
aI445
aI447
atp1341
Rp1342
sI447
g1
((lp1343
I448
aI468
aI446
atp1344
Rp1345
sI448
g1
((lp1346
I465
aI466
aI420
aI447
atp1347
Rp1348
sI449
g1
((lp1349
I450
aI483
atp1350
Rp1351
sI450
g1
((lp1352
I449
aI451
aI483
atp1353
Rp1354
sI451
g1
((lp1355
I450
aI483
aI452
atp1356
Rp1357
sI452
g1
((lp1358
I451
aI453
aI483
atp1359
Rp1360
sI453
g1
((lp1361
I484
aI452
aI454
atp1362
Rp1363
sI454
g1
((lp1364
I484
aI453
aI455
atp1365
Rp1366
sI455
g1
((lp1367
I456
aI484
aI454
atp1368
Rp1369
sI456
g1
((lp1370
I457
aI484
aI455
atp1371
Rp1372
sI457
g1
((lp1373
I456
aI458
aI485
atp1374
Rp1375
sI458
g1
((lp1376
I457
aI459
aI485
atp1377
Rp1378
sI459
g1
((lp1379
I458
aI460
aI485
atp1380
Rp1381
sI460
g1
((lp1382
I418
aI459
aI485
atp1383
Rp1384
sI461
g1
((lp1385
I352
aI514
aI477
aI476
aI413
aI414
atp1386
Rp1387
sI462
g1
((lp1388
I441
aI442
aI516
aI478
atp1389
Rp1390
sI463
g1
((lp1391
I464
aI480
aI518
aI326
aI415
atp1392
Rp1393
sI464
g1
((lp1394
I416
aI481
aI326
aI463
aI502
aI503
atp1395
Rp1396
sI465
g1
((lp1397
I448
aI466
aI475
aI468
atp1398
Rp1399
sI466
g1
((lp1400
I448
aI465
atp1401
Rp1402
sI467
g1
((lp1403
I481
aI444
atp1404
Rp1405
sI468
g1
((lp1406
I488
aI465
aI475
aI447
atp1407
Rp1408
sI469
g1
((lp1409
I470
atp1410
Rp1411
sI470
g1
((lp1412
I469
aI471
atp1413
Rp1414
sI471
g1
((lp1415
I472
aI470
atp1416
Rp1417
sI472
g1
((lp1418
I473
aI471
atp1419
Rp1420
sI473
g1
((lp1421
I472
aI474
atp1422
Rp1423
sI474
g1
((lp1424
I473
aI482
atp1425
Rp1426
sI475
g1
((lp1427
I465
aI468
aI489
atp1428
Rp1429
sI476
g1
((lp1430
I501
aI461
aI413
atp1431
Rp1432
sI477
g1
((lp1433
I515
aI461
aI478
aI414
atp1434
Rp1435
sI478
g1
((lp1436
I440
aI441
aI515
aI477
aI462
atp1437
Rp1438
sI479
g1
((lp1439
I480
aI442
aI443
aI517
atp1440
Rp1441
sI480
g1
((lp1442
I463
aI415
aI517
aI479
atp1443
Rp1444
sI481
g1
((lp1445
I464
aI416
aI490
aI467
aI504
atp1446
Rp1447
sI482
g1
((lp1448
I417
aI474
aI483
aI493
aI506
atp1449
Rp1450
sI483
g1
((lp1451
I449
aI482
aI451
aI452
aI519
aI450
aI484
atp1452
Rp1453
sI484
g1
((lp1454
I483
aI485
aI454
aI455
aI456
aI519
aI453
atp1455
Rp1456
sI485
g1
((lp1457
I484
aI486
aI520
aI457
aI458
aI459
aI460
atp1458
Rp1459
sI486
g1
((lp1460
I520
aI418
aI485
aI487
atp1461
Rp1462
sI487
g1
((lp1463
I488
aI521
aI419
aI486
atp1464
Rp1465
sI488
g1
((lp1466
I487
aI521
aI494
aI468
aI445
aI446
atp1467
Rp1468
sI489
g1
((lp1469
I475
aI494
atp1470
Rp1471
sI490
g1
((lp1472
I481
aI491
aI497
atp1473
Rp1474
sI491
g1
((lp1475
I490
aI492
aI498
atp1476
Rp1477
sI492
g1
((lp1478
I505
aI491
aI493
atp1479
Rp1480
sI493
g1
((lp1481
I505
aI482
aI492
atp1482
Rp1483
sI494
g1
((lp1484
I488
aI489
aI499
aI495
atp1485
Rp1486
sI495
g1
((lp1487
I496
aI494
atp1488
Rp1489
sI496
g1
((lp1490
I499
aI500
aI495
atp1491
Rp1492
sI497
g1
((lp1493
I504
aI498
aI507
aI508
aI490
atp1494
Rp1495
sI498
g1
((lp1496
I497
aI491
aI505
atp1497
Rp1498
sI499
g1
((lp1499
I496
aI521
aI500
aI494
atp1500
Rp1501
sI500
g1
((lp1502
I496
aI499
aI509
atp1503
Rp1504
sI501
g1
((lp1505
I514
aI476
aI534
atp1506
Rp1507
sI502
g1
((lp1508
I464
aI535
aI518
aI503
atp1509
Rp1510
sI503
g1
((lp1511
I504
aI464
aI528
aI502
aI527
atp1512
Rp1513
sI504
g1
((lp1514
I512
aI481
aI522
aI523
aI497
aI503
aI507
atp1515
Rp1516
sI505
g1
((lp1517
I492
aI524
aI493
aI525
aI498
aI506
aI510
atp1518
Rp1519
sI506
g1
((lp1520
I505
aI482
aI529
aI530
aI519
atp1521
Rp1522
sI507
g1
((lp1523
I504
aI497
aI508
atp1524
Rp1525
sI508
g1
((lp1526
I497
aI507
aI510
atp1527
Rp1528
sI509
g1
((lp1529
I500
aI511
atp1530
Rp1531
sI510
g1
((lp1532
I505
aI508
atp1533
Rp1534
sI511
g1
((lp1535
I513
aI531
aI509
aI521
atp1536
Rp1537
sI512
g1
((lp1538
I504
atp1539
Rp1540
sI513
g1
((lp1541
I526
aI511
atp1542
Rp1543
sI514
g1
((lp1544
I599
aI515
aI501
aI534
aI461
atp1545
Rp1546
sI515
g1
((lp1547
I600
aI514
aI516
aI477
aI478
atp1548
Rp1549
sI516
g1
((lp1550
I601
aI515
aI517
aI462
atp1551
Rp1552
sI517
g1
((lp1553
I480
aI602
aI516
aI518
aI479
atp1554
Rp1555
sI518
g1
((lp1556
I603
aI463
aI517
aI502
aI535
atp1557
Rp1558
sI519
g1
((lp1559
I483
aI484
aI520
aI624
aI530
aI506
aI541
atp1560
Rp1561
sI520
g1
((lp1562
I624
aI521
aI485
aI486
aI519
atp1563
Rp1564
sI521
g1
((lp1565
I487
aI520
aI499
aI488
aI531
aI604
aI542
aI511
atp1566
Rp1567
sI522
g1
((lp1568
I504
aI528
aI523
atp1569
Rp1570
sI523
g1
((lp1571
I504
aI522
atp1572
Rp1573
sI524
g1
((lp1574
I505
aI525
atp1575
Rp1576
sI525
g1
((lp1577
I529
aI524
aI532
aI505
atp1578
Rp1579
sI526
g1
((lp1580
I513
aI531
aI533
atp1581
Rp1582
sI527
g1
((lp1583
I528
aI535
aI503
atp1584
Rp1585
sI528
g1
((lp1586
I536
aI522
aI503
aI527
atp1587
Rp1588
sI529
g1
((lp1589
I525
aI530
aI532
aI537
aI506
aI538
atp1590
Rp1591
sI530
g1
((lp1592
I529
aI506
aI519
atp1593
Rp1594
sI531
g1
((lp1595
I521
aI533
aI526
aI511
atp1596
Rp1597
sI532
g1
((lp1598
I529
aI525
atp1599
Rp1600
sI533
g1
((lp1601
I539
aI531
aI526
atp1602
Rp1603
sI534
g1
((lp1604
I514
aI571
aI501
atp1605
Rp1606
sI535
g1
((lp1607
I572
aI540
aI502
aI518
aI527
atp1608
Rp1609
sI536
g1
((lp1610
I528
aI540
atp1611
Rp1612
sI537
g1
((lp1613
I529
aI538
atp1614
Rp1615
sI538
g1
((lp1616
I537
aI541
aI529
atp1617
Rp1618
sI539
g1
((lp1619
I533
aI542
atp1620
Rp1621
sI540
g1
((lp1622
I536
aI546
aI547
aI535
atp1623
Rp1624
sI541
g1
((lp1625
I538
aI543
aI549
aI519
atp1626
Rp1627
sI542
g1
((lp1628
I544
aI521
aI539
aI573
atp1629
Rp1630
sI543
g1
((lp1631
I548
aI541
atp1632
Rp1633
sI544
g1
((lp1634
I545
aI542
atp1635
Rp1636
sI545
g1
((lp1637
I544
aI573
atp1638
Rp1639
sI546
g1
((lp1640
I572
aI547
aI540
aI550
atp1641
Rp1642
sI547
g1
((lp1643
I546
aI540
atp1644
Rp1645
sI548
g1
((lp1646
I549
aI543
atp1647
Rp1648
sI549
g1
((lp1649
I624
aI548
aI541
atp1650
Rp1651
sI550
g1
((lp1652
I546
aI572
aI574
atp1653
Rp1654
sI551
g1
((lp1655
I552
atp1656
Rp1657
sI552
g1
((lp1658
I553
aI551
atp1659
Rp1660
sI553
g1
((lp1661
I552
aI554
atp1662
Rp1663
sI554
g1
((lp1664
I553
aI555
atp1665
Rp1666
sI555
g1
((lp1667
I554
aI556
atp1668
Rp1669
sI556
g1
((lp1670
I555
aI557
atp1671
Rp1672
sI557
g1
((lp1673
I556
aI558
atp1674
Rp1675
sI558
g1
((lp1676
I557
aI559
atp1677
Rp1678
sI559
g1
((lp1679
I560
aI558
atp1680
Rp1681
sI560
g1
((lp1682
I561
aI559
atp1683
Rp1684
sI561
g1
((lp1685
I560
aI562
atp1686
Rp1687
sI562
g1
((lp1688
I561
aI563
atp1689
Rp1690
sI563
g1
((lp1691
I562
aI564
atp1692
Rp1693
sI564
g1
((lp1694
I563
aI565
atp1695
Rp1696
sI565
g1
((lp1697
I564
aI566
atp1698
Rp1699
sI566
g1
((lp1700
I565
aI567
atp1701
Rp1702
sI567
g1
((lp1703
I568
aI566
atp1704
Rp1705
sI568
g1
((lp1706
I569
aI567
atp1707
Rp1708
sI569
g1
((lp1709
I568
aI570
atp1710
Rp1711
sI570
g1
((lp1712
I569
atp1713
Rp1714
sI571
g1
((lp1715
I612
aI597
aI534
aI599
atp1716
Rp1717
sI572
g1
((lp1718
I546
aI613
aI550
aI598
aI535
aI603
aI574
atp1719
Rp1720
sI573
g1
((lp1721
I545
aI604
aI614
aI542
atp1722
Rp1723
sI574
g1
((lp1724
I572
aI550
atp1725
Rp1726
sI575
g1
((lp1727
I624
aI606
atp1728
Rp1729
sI576
g1
((lp1730
I577
aI615
atp1731
Rp1732
sI577
g1
((lp1733
I576
aI578
aI615
atp1734
Rp1735
sI578
g1
((lp1736
I616
aI577
aI579
atp1737
Rp1738
sI579
g1
((lp1739
I616
aI578
aI580
atp1740
Rp1741
sI580
g1
((lp1742
I617
aI579
aI581
atp1743
Rp1744
sI581
g1
((lp1745
I617
aI580
aI582
atp1746
Rp1747
sI582
g1
((lp1748
I618
aI581
aI583
atp1749
Rp1750
sI583
g1
((lp1751
I584
aI618
aI582
atp1752
Rp1753
sI584
g1
((lp1754
I585
aI619
aI583
atp1755
Rp1756
sI585
g1
((lp1757
I584
aI619
atp1758
Rp1759
sI586
g1
((lp1760
I609
aI587
atp1761
Rp1762
sI587
g1
((lp1763
I609
aI586
aI588
atp1764
Rp1765
sI588
g1
((lp1766
I609
aI587
aI589
atp1767
Rp1768
sI589
g1
((lp1769
I609
aI588
aI590
atp1770
Rp1771
sI590
g1
((lp1772
I610
aI589
aI591
atp1773
Rp1774
sI591
g1
((lp1775
I592
aI610
aI590
atp1776
Rp1777
sI592
g1
((lp1778
I593
aI610
aI591
atp1779
Rp1780
sI593
g1
((lp1781
I592
aI594
aI610
atp1782
Rp1783
sI594
g1
((lp1784
I611
aI593
aI595
atp1785
Rp1786
sI595
g1
((lp1787
I594
aI611
aI596
atp1788
Rp1789
sI596
g1
((lp1790
I611
aI595
aI597
atp1791
Rp1792
sI597
g1
((lp1793
I611
aI571
aI596
atp1794
Rp1795
sI598
g1
((lp1796
I572
aI605
atp1797
Rp1798
sI599
g1
((lp1799
I514
aI612
aI629
aI630
aI600
aI571
atp1800
Rp1801
sI600
g1
((lp1802
I641
aI601
aI515
aI599
atp1803
Rp1804
sI601
g1
((lp1805
I600
aI632
aI602
aI516
aI631
atp1806
Rp1807
sI602
g1
((lp1808
I601
aI642
aI603
aI517
atp1809
Rp1810
sI603
g1
((lp1811
I602
aI643
aI572
aI613
aI518
atp1812
Rp1813
sI604
g1
((lp1814
I624
aI521
aI644
aI573
aI614
atp1815
Rp1816
sI605
g1
((lp1817
I613
aI598
aI607
atp1818
Rp1819
sI606
g1
((lp1820
I624
aI608
aI575
atp1821
Rp1822
sI607
g1
((lp1823
I620
aI605
aI613
atp1824
Rp1825
sI608
g1
((lp1826
I624
aI621
aI606
atp1827
Rp1828
sI609
g1
((lp1829
I610
aI586
aI587
aI588
aI589
aI639
atp1830
Rp1831
sI610
g1
((lp1832
I609
aI611
aI590
aI591
aI592
aI593
aI639
atp1833
Rp1834
sI611
g1
((lp1835
I640
aI610
aI612
aI594
aI595
aI596
aI597
atp1836
Rp1837
sI612
g1
((lp1838
I640
aI571
aI611
aI599
atp1839
Rp1840
sI613
g1
((lp1841
I620
aI622
aI633
aI603
aI572
aI605
aI607
atp1842
Rp1843
sI614
g1
((lp1844
I634
aI604
aI573
aI615
atp1845
Rp1846
sI615
g1
((lp1847
I616
aI576
aI635
aI614
aI577
atp1848
Rp1849
sI616
g1
((lp1850
I617
aI578
aI579
aI645
aI615
atp1851
Rp1852
sI617
g1
((lp1853
I616
aI618
aI580
aI581
aI645
atp1854
Rp1855
sI618
g1
((lp1856
I617
aI619
aI646
aI582
aI583
atp1857
Rp1858
sI619
g1
((lp1859
I584
aI585
aI618
aI646
atp1860
Rp1861
sI620
g1
((lp1862
I613
aI607
atp1863
Rp1864
sI621
g1
((lp1865
I624
aI608
atp1866
Rp1867
sI622
g1
((lp1868
I625
aI613
atp1869
Rp1870
sI623
g1
((lp1871
I624
aI626
atp1872
Rp1873
sI624
g1
((lp1874
I608
aI644
aI549
aI519
aI520
aI652
aI621
aI623
aI626
aI628
aI726
aI695
aI696
aI666
aI604
aI637
aI606
aI575
atp1875
Rp1876
sI625
g1
((lp1877
I633
aI627
aI622
atp1878
Rp1879
sI626
g1
((lp1880
I624
aI628
aI623
atp1881
Rp1882
sI627
g1
((lp1883
I625
aI636
aI633
atp1884
Rp1885
sI628
g1
((lp1886
I624
aI626
atp1887
Rp1888
sI629
g1
((lp1889
I640
aI656
aI630
aI599
atp1890
Rp1891
sI630
g1
((lp1892
I648
aI641
aI647
aI629
aI599
atp1893
Rp1894
sI631
g1
((lp1895
I632
aI601
aI650
aI649
aI641
atp1896
Rp1897
sI632
g1
((lp1898
I657
aI601
aI642
aI631
atp1899
Rp1900
sI633
g1
((lp1901
I643
aI613
aI625
aI658
aI627
aI636
aI638
atp1902
Rp1903
sI634
g1
((lp1904
I635
aI644
aI653
aI614
aI654
atp1905
Rp1906
sI635
g1
((lp1907
I634
aI659
aI645
aI615
atp1908
Rp1909
sI636
g1
((lp1910
I633
aI627
atp1911
Rp1912
sI637
g1
((lp1913
I624
aI652
atp1914
Rp1915
sI638
g1
((lp1916
I633
aI651
atp1917
Rp1918
sI639
g1
((lp1919
I640
aI609
aI610
aI721
atp1920
Rp1921
sI640
g1
((lp1922
I611
aI612
aI677
aI678
aI679
aI680
aI656
aI629
aI639
atp1923
Rp1924
sI641
g1
((lp1925
I648
aI649
aI722
aI630
aI631
aI600
aI668
atp1926
Rp1927
sI642
g1
((lp1928
I632
aI657
aI602
aI643
aI723
atp1929
Rp1930
sI643
g1
((lp1931
I633
aI642
aI603
aI724
aI658
atp1932
Rp1933
sI644
g1
((lp1934
I675
aI683
aI653
aI624
aI697
aI634
aI667
aI604
atp1935
Rp1936
sI645
g1
((lp1937
I646
aI616
aI617
aI659
aI762
aI635
atp1938
Rp1939
sI646
g1
((lp1940
I762
aI618
aI619
aI645
atp1941
Rp1942
sI647
g1
((lp1943
I648
aI656
aI630
atp1944
Rp1945
sI648
g1
((lp1946
I641
aI630
aI647
atp1947
Rp1948
sI649
g1
((lp1949
I641
aI650
aI660
aI631
atp1950
Rp1951
sI650
g1
((lp1952
I649
aI631
aI657
atp1953
Rp1954
sI651
g1
((lp1955
I658
aI638
atp1956
Rp1957
sI652
g1
((lp1958
I624
aI637
aI655
atp1959
Rp1960
sI653
g1
((lp1961
I634
aI644
aI654
atp1962
Rp1963
sI654
g1
((lp1964
I664
aI634
aI659
aI653
aI663
atp1965
Rp1966
sI655
g1
((lp1967
I652
aI662
atp1968
Rp1969
sI656
g1
((lp1970
I640
aI681
aI682
aI629
aI647
atp1971
Rp1972
sI657
g1
((lp1973
I632
aI650
aI642
aI693
atp1974
Rp1975
sI658
g1
((lp1976
I665
aI643
aI651
aI725
aI633
atp1977
Rp1978
sI659
g1
((lp1979
I676
aI645
aI684
aI654
aI664
aI635
atp1980
Rp1981
sI660
g1
((lp1982
I649
atp1983
Rp1984
sI661
g1
((lp1985
I665
atp1986
Rp1987
sI662
g1
((lp1988
I666
aI655
atp1989
Rp1990
sI663
g1
((lp1991
I664
aI667
aI654
atp1992
Rp1993
sI664
g1
((lp1994
I659
aI654
aI663
atp1995
Rp1996
sI665
g1
((lp1997
I658
aI661
aI669
atp1998
Rp1999
sI666
g1
((lp2000
I624
aI694
aI662
aI671
atp2001
Rp2002
sI667
g1
((lp2003
I644
aI663
atp2004
Rp2005
sI668
g1
((lp2006
I672
aI641
atp2007
Rp2008
sI669
g1
((lp2009
I665
aI725
atp2010
Rp2011
sI670
g1
((lp2012
I694
aI671
atp2013
Rp2014
sI671
g1
((lp2015
I666
aI694
aI670
atp2016
Rp2017
sI672
g1
((lp2018
I722
aI668
aI685
atp2019
Rp2020
sI673
g1
((lp2021
I725
aI686
atp2022
Rp2023
sI674
g1
((lp2024
I690
aI694
atp2025
Rp2026
sI675
g1
((lp2027
I683
aI644
aI691
atp2028
Rp2029
sI676
g1
((lp2030
I692
aI659
aI684
atp2031
Rp2032
sI677
g1
((lp2033
I640
aI721
aI678
atp2034
Rp2035
sI678
g1
((lp2036
I640
aI698
aI699
aI677
aI679
atp2037
Rp2038
sI679
g1
((lp2039
I680
aI640
aI700
aI701
aI678
atp2040
Rp2041
sI680
g1
((lp2042
I640
aI681
aI703
aI702
aI679
atp2043
Rp2044
sI681
g1
((lp2045
I680
aI656
aI682
aI704
aI705
atp2046
Rp2047
sI682
g1
((lp2048
I656
aI681
aI706
aI707
atp2049
Rp2050
sI683
g1
((lp2051
I697
aI675
aI644
aI691
atp2052
Rp2053
sI684
g1
((lp2054
I692
aI762
aI659
aI676
atp2055
Rp2056
sI685
g1
((lp2057
I672
aI722
aI708
atp2058
Rp2059
sI686
g1
((lp2060
I673
aI725
aI687
atp2061
Rp2062
sI687
g1
((lp2063
I686
atp2064
Rp2065
sI688
g1
((lp2066
I689
atp2067
Rp2068
sI689
g1
((lp2069
I688
aI690
atp2070
Rp2071
sI690
g1
((lp2072
I689
aI674
aI694
atp2073
Rp2074
sI691
g1
((lp2075
I683
aI675
aI709
atp2076
Rp2077
sI692
g1
((lp2078
I676
aI684
atp2079
Rp2080
sI693
g1
((lp2081
I657
aI723
aI741
atp2082
Rp2083
sI694
g1
((lp2084
I674
aI745
aI716
aI690
aI695
aI666
aI670
aI671
atp2085
Rp2086
sI695
g1
((lp2087
I696
aI624
aI733
aI694
aI734
atp2088
Rp2089
sI696
g1
((lp2090
I624
aI726
aI695
aI728
aI729
aI730
atp2091
Rp2092
sI697
g1
((lp2093
I746
aI683
aI644
aI717
aI726
atp2094
Rp2095
sI698
g1
((lp2096
I699
aI710
aI678
atp2097
Rp2098
sI699
g1
((lp2099
I698
aI700
aI678
atp2100
Rp2101
sI700
g1
((lp2102
I699
aI701
aI679
atp2103
Rp2104
sI701
g1
((lp2105
I700
aI702
aI679
atp2106
Rp2107
sI702
g1
((lp2108
I680
aI701
aI703
atp2109
Rp2110
sI703
g1
((lp2111
I704
aI680
aI702
atp2112
Rp2113
sI704
g1
((lp2114
I705
aI681
aI703
atp2115
Rp2116
sI705
g1
((lp2117
I704
aI681
aI706
atp2118
Rp2119
sI706
g1
((lp2120
I705
aI682
aI707
atp2121
Rp2122
sI707
g1
((lp2123
I706
aI682
atp2124
Rp2125
sI708
g1
((lp2126
I722
aI685
atp2127
Rp2128
sI709
g1
((lp2129
I691
aI717
atp2130
Rp2131
sI710
g1
((lp2132
I721
aI698
aI732
atp2133
Rp2134
sI711
g1
((lp2135
I712
aI725
aI742
atp2136
Rp2137
sI712
g1
((lp2138
I713
aI742
aI711
atp2139
Rp2140
sI713
g1
((lp2141
I712
aI714
aI743
atp2142
Rp2143
sI714
g1
((lp2144
I713
aI715
aI743
atp2145
Rp2146
sI715
g1
((lp2147
I744
aI714
aI716
atp2148
Rp2149
sI716
g1
((lp2150
I744
aI715
aI694
atp2151
Rp2152
sI717
g1
((lp2153
I720
aI697
aI709
aI735
atp2154
Rp2155
sI718
g1
((lp2156
I736
aI762
atp2157
Rp2158
sI719
g1
((lp2159
I722
aI727
atp2160
Rp2161
sI720
g1
((lp2162
I731
aI717
atp2163
Rp2164
sI721
g1
((lp2165
I677
aI710
aI752
aI795
aI732
aI639
atp2166
Rp2167
sI722
g1
((lp2168
I672
aI641
aI708
aI747
aI685
aI719
aI757
aI727
atp2169
Rp2170
sI723
g1
((lp2171
I796
aI642
aI724
aI693
aI741
atp2172
Rp2173
sI724
g1
((lp2174
I723
aI643
aI725
atp2175
Rp2176
sI725
g1
((lp2177
I673
aI774
aI742
aI711
aI686
aI658
aI724
aI669
atp2178
Rp2179
sI726
g1
((lp2180
I738
aI746
aI750
aI624
aI696
aI697
aI730
aI797
atp2181
Rp2182
sI727
g1
((lp2183
I737
aI722
aI719
atp2184
Rp2185
sI728
g1
((lp2186
I696
aI734
atp2187
Rp2188
sI729
g1
((lp2189
I696
aI730
atp2190
Rp2191
sI730
g1
((lp2192
I696
aI729
aI738
aI726
atp2193
Rp2194
sI731
g1
((lp2195
I720
aI739
aI735
atp2196
Rp2197
sI732
g1
((lp2198
I721
aI710
atp2199
Rp2200
sI733
g1
((lp2201
I745
aI748
aI749
aI734
aI695
atp2202
Rp2203
sI734
g1
((lp2204
I728
aI733
aI695
atp2205
Rp2206
sI735
g1
((lp2207
I746
aI731
aI717
aI739
atp2208
Rp2209
sI736
g1
((lp2210
I762
aI740
aI718
atp2211
Rp2212
sI737
g1
((lp2213
I747
aI727
atp2214
Rp2215
sI738
g1
((lp2216
I730
aI750
aI726
atp2217
Rp2218
sI739
g1
((lp2219
I731
aI735
atp2220
Rp2221
sI740
g1
((lp2222
I736
atp2223
Rp2224
sI741
g1
((lp2225
I723
aI693
aI773
atp2226
Rp2227
sI742
g1
((lp2228
I712
aI775
aI711
aI725
aI743
atp2229
Rp2230
sI743
g1
((lp2231
I744
aI713
aI714
aI742
aI776
atp2232
Rp2233
sI744
g1
((lp2234
I768
aI743
aI745
aI715
aI716
aI767
atp2235
Rp2236
sI745
g1
((lp2237
I769
aI694
aI744
aI748
aI758
aI763
aI764
aI733
atp2238
Rp2239
sI746
g1
((lp2240
I753
aI697
aI798
aI726
aI735
atp2241
Rp2242
sI747
g1
((lp2243
I737
aI722
atp2244
Rp2245
sI748
g1
((lp2246
I745
aI749
aI733
atp2247
Rp2248
sI749
g1
((lp2249
I748
aI733
atp2250
Rp2251
sI750
g1
((lp2252
I738
aI726
atp2253
Rp2254
sI751
g1
((lp2255
I754
atp2256
Rp2257
sI752
g1
((lp2258
I721
aI766
atp2259
Rp2260
sI753
g1
((lp2261
I746
aI754
atp2262
Rp2263
sI754
g1
((lp2264
I753
aI759
aI798
aI751
atp2265
Rp2266
sI755
g1
((lp2267
I756
atp2268
Rp2269
sI756
g1
((lp2270
I762
aI755
atp2271
Rp2272
sI757
g1
((lp2273
I722
atp2274
Rp2275
sI758
g1
((lp2276
I745
atp2277
Rp2278
sI759
g1
((lp2279
I760
aI754
aI799
atp2280
Rp2281
sI760
g1
((lp2282
I761
aI799
aI759
atp2283
Rp2284
sI761
g1
((lp2285
I760
aI799
atp2286
Rp2287
sI762
g1
((lp2288
I736
aI645
aI646
aI684
aI718
aI756
aI956
aI799
atp2289
Rp2290
sI763
g1
((lp2291
I745
aI764
aI769
atp2292
Rp2293
sI764
g1
((lp2294
I745
aI763
atp2295
Rp2296
sI765
g1
((lp2297
I772
aI797
atp2298
Rp2299
sI766
g1
((lp2300
I752
aI795
atp2301
Rp2302
sI767
g1
((lp2303
I768
aI744
aI776
atp2304
Rp2305
sI768
g1
((lp2306
I744
aI769
aI778
aI777
aI767
atp2307
Rp2308
sI769
g1
((lp2309
I768
aI745
aI763
aI779
atp2310
Rp2311
sI770
g1
((lp2312
I771
atp2313
Rp2314
sI771
g1
((lp2315
I770
aI772
atp2316
Rp2317
sI772
g1
((lp2318
I771
aI797
aI765
atp2319
Rp2320
sI773
g1
((lp2321
I796
aI741
aI813
atp2322
Rp2323
sI774
g1
((lp2324
I725
aI814
aI775
atp2325
Rp2326
sI775
g1
((lp2327
I776
aI742
aI774
aI815
atp2328
Rp2329
sI776
g1
((lp2330
I805
aI806
aI743
aI775
aI781
aI767
atp2331
Rp2332
sI777
g1
((lp2333
I768
aI778
aI781
atp2334
Rp2335
sI778
g1
((lp2336
I768
aI777
aI779
atp2337
Rp2338
sI779
g1
((lp2339
I769
aI778
atp2340
Rp2341
sI780
g1
((lp2342
I795
aI804
atp2343
Rp2344
sI781
g1
((lp2345
I776
aI777
aI802
aI801
aI793
atp2346
Rp2347
sI782
g1
((lp2348
I816
aI794
aI783
atp2349
Rp2350
sI783
g1
((lp2351
I816
aI797
aI782
atp2352
Rp2353
sI784
g1
((lp2354
I785
aI811
atp2355
Rp2356
sI785
g1
((lp2357
I784
aI786
aI811
atp2358
Rp2359
sI786
g1
((lp2360
I785
aI787
aI811
atp2361
Rp2362
sI787
g1
((lp2363
I786
aI811
aI788
atp2364
Rp2365
sI788
g1
((lp2366
I787
aI812
aI789
atp2367
Rp2368
sI789
g1
((lp2369
I812
aI788
aI790
atp2370
Rp2371
sI790
g1
((lp2372
I812
aI789
aI791
atp2373
Rp2374
sI791
g1
((lp2375
I792
aI812
aI790
atp2376
Rp2377
sI792
g1
((lp2378
I800
aI791
atp2379
Rp2380
sI793
g1
((lp2381
I781
atp2382
Rp2383
sI794
g1
((lp2384
I782
atp2385
Rp2386
sI795
g1
((lp2387
I804
aI780
aI879
aI721
aI820
aI766
atp2388
Rp2389
sI796
g1
((lp2390
I881
aI723
aI773
aI813
atp2391
Rp2392
sI797
g1
((lp2393
I832
aI833
aI834
aI835
aI772
aI783
aI816
aI726
aI765
aI798
atp2394
Rp2395
sI798
g1
((lp2396
I754
aI746
aI956
aI797
aI799
atp2397
Rp2398
sI799
g1
((lp2399
I759
aI760
aI761
aI762
aI956
aI798
atp2400
Rp2401
sI800
g1
((lp2402
I792
aI808
aI812
atp2403
Rp2404
sI801
g1
((lp2405
I809
aI802
aI781
aI806
atp2406
Rp2407
sI802
g1
((lp2408
I801
aI781
atp2409
Rp2410
sI803
g1
((lp2411
I810
aI807
atp2412
Rp2413
sI804
g1
((lp2414
I795
aI780
atp2415
Rp2416
sI805
g1
((lp2417
I776
aI806
aI815
atp2418
Rp2419
sI806
g1
((lp2420
I776
aI801
aI818
aI805
aI809
atp2421
Rp2422
sI807
g1
((lp2423
I816
aI810
aI803
atp2424
Rp2425
sI808
g1
((lp2426
I800
aI817
aI812
atp2427
Rp2428
sI809
g1
((lp2429
I801
aI806
atp2430
Rp2431
sI810
g1
((lp2432
I819
aI803
aI807
atp2433
Rp2434
sI811
g1
((lp2435
I880
aI812
aI784
aI785
aI786
aI787
atp2436
Rp2437
sI812
g1
((lp2438
I800
aI880
aI808
aI811
aI791
aI817
aI788
aI789
aI790
aI823
atp2439
Rp2440
sI813
g1
((lp2441
I852
aI796
aI773
atp2442
Rp2443
sI814
g1
((lp2444
I853
aI774
aI815
atp2445
Rp2446
sI815
g1
((lp2447
I775
aI854
aI805
aI814
aI821
atp2448
Rp2449
sI816
g1
((lp2450
I807
aI782
aI783
aI822
aI855
aI797
atp2451
Rp2452
sI817
g1
((lp2453
I808
aI812
atp2454
Rp2455
sI818
g1
((lp2456
I821
aI806
atp2457
Rp2458
sI819
g1
((lp2459
I810
aI822
atp2460
Rp2461
sI820
g1
((lp2462
I795
aI830
atp2463
Rp2464
sI821
g1
((lp2465
I818
aI826
aI815
atp2466
Rp2467
sI822
g1
((lp2468
I816
aI819
aI828
aI829
atp2469
Rp2470
sI823
g1
((lp2471
I825
aI812
atp2472
Rp2473
sI824
g1
((lp2474
tp2475
Rp2476
sI825
g1
((lp2477
I880
aI846
aI823
atp2478
Rp2479
sI826
g1
((lp2480
I821
aI854
aI847
atp2481
Rp2482
sI827
g1
((lp2483
I850
aI831
atp2484
Rp2485
sI828
g1
((lp2486
I829
aI822
atp2487
Rp2488
sI829
g1
((lp2489
I851
aI828
aI822
aI855
atp2490
Rp2491
sI830
g1
((lp2492
I820
aI879
atp2493
Rp2494
sI831
g1
((lp2495
I849
aI850
aI827
atp2496
Rp2497
sI832
g1
((lp2498
I833
aI797
aI855
atp2499
Rp2500
sI833
g1
((lp2501
I832
aI834
aI860
aI797
atp2502
Rp2503
sI834
g1
((lp2504
I833
aI835
aI797
aI861
atp2505
Rp2506
sI835
g1
((lp2507
I834
aI956
aI797
atp2508
Rp2509
sI836
g1
((lp2510
I837
atp2511
Rp2512
sI837
g1
((lp2513
I836
aI838
atp2514
Rp2515
sI838
g1
((lp2516
I837
aI839
atp2517
Rp2518
sI839
g1
((lp2519
I840
aI838
atp2520
Rp2521
sI840
g1
((lp2522
I841
aI839
atp2523
Rp2524
sI841
g1
((lp2525
I840
aI842
atp2526
Rp2527
sI842
g1
((lp2528
I841
aI843
atp2529
Rp2530
sI843
g1
((lp2531
I842
aI844
atp2532
Rp2533
sI844
g1
((lp2534
I843
aI845
atp2535
Rp2536
sI845
g1
((lp2537
I844
atp2538
Rp2539
sI846
g1
((lp2540
I856
aI825
aI880
atp2541
Rp2542
sI847
g1
((lp2543
I857
aI826
aI854
atp2544
Rp2545
sI848
g1
((lp2546
I849
atp2547
Rp2548
sI849
g1
((lp2549
I848
aI831
atp2550
Rp2551
sI850
g1
((lp2552
I827
aI831
atp2553
Rp2554
sI851
g1
((lp2555
I859
aI829
aI855
atp2556
Rp2557
sI852
g1
((lp2558
I896
aI881
aI813
atp2559
Rp2560
sI853
g1
((lp2561
I897
aI814
aI854
atp2562
Rp2563
sI854
g1
((lp2564
I898
aI874
aI815
aI853
aI857
aI826
aI847
atp2565
Rp2566
sI855
g1
((lp2567
I832
aI871
aI816
aI851
aI884
aI885
aI886
aI887
aI859
aI829
atp2568
Rp2569
sI856
g1
((lp2570
I880
aI846
atp2571
Rp2572
sI857
g1
((lp2573
I854
aI847
atp2574
Rp2575
sI858
g1
((lp2576
I868
atp2577
Rp2578
sI859
g1
((lp2579
I851
aI855
atp2580
Rp2581
sI860
g1
((lp2582
I833
aI871
atp2583
Rp2584
sI861
g1
((lp2585
I872
aI834
atp2586
Rp2587
sI862
g1
((lp2588
I879
aI893
aI863
atp2589
Rp2590
sI863
g1
((lp2591
I864
aI893
aI862
atp2592
Rp2593
sI864
g1
((lp2594
I865
aI894
aI863
atp2595
Rp2596
sI865
g1
((lp2597
I864
aI866
aI894
atp2598
Rp2599
sI866
g1
((lp2600
I865
aI867
aI895
atp2601
Rp2602
sI867
g1
((lp2603
I866
aI895
atp2604
Rp2605
sI868
g1
((lp2606
I858
aI900
aI869
aI877
atp2607
Rp2608
sI869
g1
((lp2609
I868
aI901
aI870
atp2610
Rp2611
sI870
g1
((lp2612
I869
aI901
atp2613
Rp2614
sI871
g1
((lp2615
I860
aI855
atp2616
Rp2617
sI872
g1
((lp2618
I888
aI956
aI861
aI878
atp2619
Rp2620
sI873
g1
((lp2621
I880
aI882
atp2622
Rp2623
sI874
g1
((lp2624
I875
aI899
aI854
atp2625
Rp2626
sI875
g1
((lp2627
I874
aI899
atp2628
Rp2629
sI876
g1
((lp2630
I900
aI877
atp2631
Rp2632
sI877
g1
((lp2633
I868
aI900
aI876
atp2634
Rp2635
sI878
g1
((lp2636
I872
atp2637
Rp2638
sI879
g1
((lp2639
I935
aI795
aI830
aI862
aI893
atp2640
Rp2641
sI880
g1
((lp2642
I811
aI873
aI906
aI907
aI812
aI846
aI882
aI856
aI825
aI938
atp2643
Rp2644
sI881
g1
((lp2645
I896
aI796
aI940
aI852
atp2646
Rp2647
sI882
g1
((lp2648
I880
aI873
aI889
atp2649
Rp2650
sI883
g1
((lp2651
I890
aI901
atp2652
Rp2653
sI884
g1
((lp2654
I885
aI855
atp2655
Rp2656
sI885
g1
((lp2657
I891
aI884
aI886
aI855
atp2658
Rp2659
sI886
g1
((lp2660
I855
aI892
aI885
aI887
atp2661
Rp2662
sI887
g1
((lp2663
I886
aI855
atp2664
Rp2665
sI888
g1
((lp2666
I872
aI956
atp2667
Rp2668
sI889
g1
((lp2669
I882
atp2670
Rp2671
sI890
g1
((lp2672
I883
aI901
aI902
atp2673
Rp2674
sI891
g1
((lp2675
I892
aI885
aI903
atp2676
Rp2677
sI892
g1
((lp2678
I891
aI886
atp2679
Rp2680
sI893
g1
((lp2681
I936
aI863
aI862
aI894
aI879
atp2682
Rp2683
sI894
g1
((lp2684
I864
aI865
aI936
aI893
aI895
atp2685
Rp2686
sI895
g1
((lp2687
I937
aI866
aI867
aI894
atp2688
Rp2689
sI896
g1
((lp2690
I881
aI908
aI939
aI852
atp2691
Rp2692
sI897
g1
((lp2693
I898
aI923
aI853
atp2694
Rp2695
sI898
g1
((lp2696
I897
aI899
aI941
aI854
atp2697
Rp2698
sI899
g1
((lp2699
I898
aI875
aI900
aI874
aI941
atp2700
Rp2701
sI900
g1
((lp2702
I899
aI868
aI901
aI876
aI877
aI924
atp2703
Rp2704
sI901
g1
((lp2705
I900
aI869
aI902
aI910
aI883
aI870
aI918
aI890
aI917
atp2706
Rp2707
sI902
g1
((lp2708
I890
aI901
atp2709
Rp2710
sI903
g1
((lp2711
I891
atp2712
Rp2713
sI904
g1
((lp2714
I909
atp2715
Rp2716
sI905
g1
((lp2717
I906
atp2718
Rp2719
sI906
g1
((lp2720
I880
aI905
aI937
atp2721
Rp2722
sI907
g1
((lp2723
I880
aI939
aI908
atp2724
Rp2725
sI908
g1
((lp2726
I896
aI907
aI939
atp2727
Rp2728
sI909
g1
((lp2729
I904
aI914
aI956
aI925
atp2730
Rp2731
sI910
g1
((lp2732
I915
aI901
aI911
atp2733
Rp2734
sI911
g1
((lp2735
I916
aI910
atp2736
Rp2737
sI912
g1
((lp2738
I913
atp2739
Rp2740
sI913
g1
((lp2741
I912
aI914
aI925
atp2742
Rp2743
sI914
g1
((lp2744
I913
aI909
aI925
atp2745
Rp2746
sI915
g1
((lp2747
I920
aI916
aI918
aI910
atp2748
Rp2749
sI916
g1
((lp2750
I915
aI911
atp2751
Rp2752
sI917
g1
((lp2753
I924
aI901
aI918
atp2754
Rp2755
sI918
g1
((lp2756
I901
aI915
aI917
aI920
aI926
aI927
atp2757
Rp2758
sI919
g1
((lp2759
I922
aI925
atp2760
Rp2761
sI920
g1
((lp2762
I915
aI918
atp2763
Rp2764
sI921
g1
((lp2765
I922
atp2766
Rp2767
sI922
g1
((lp2768
I921
aI919
atp2769
Rp2770
sI923
g1
((lp2771
I897
aI946
aI941
atp2772
Rp2773
sI924
g1
((lp2774
I929
aI900
aI941
aI943
aI944
aI917
atp2775
Rp2776
sI925
g1
((lp2777
I931
aI909
aI913
aI914
aI949
aI919
aI956
atp2778
Rp2779
sI926
g1
((lp2780
I929
aI918
aI927
atp2781
Rp2782
sI927
g1
((lp2783
I918
aI926
atp2784
Rp2785
sI928
g1
((lp2786
I930
atp2787
Rp2788
sI929
g1
((lp2789
I932
aI924
aI942
aI926
atp2790
Rp2791
sI930
g1
((lp2792
I928
aI931
aI948
aI934
atp2793
Rp2794
sI931
g1
((lp2795
I930
aI948
aI925
atp2796
Rp2797
sI932
g1
((lp2798
I929
atp2799
Rp2800
sI933
g1
((lp2801
I934
atp2802
Rp2803
sI934
g1
((lp2804
I930
aI933
atp2805
Rp2806
sI935
g1
((lp2807
I936
aI969
aI879
atp2808
Rp2809
sI936
g1
((lp2810
I937
aI969
aI893
aI894
aI935
atp2811
Rp2812
sI937
g1
((lp2813
I936
aI970
aI938
aI906
aI895
atp2814
Rp2815
sI938
g1
((lp2816
I880
aI937
aI970
aI939
atp2817
Rp2818
sI939
g1
((lp2819
I896
aI971
aI940
aI938
aI907
aI908
atp2820
Rp2821
sI940
g1
((lp2822
I881
aI939
aI971
atp2823
Rp2824
sI941
g1
((lp2825
I898
aI899
aI965
aI943
aI946
aI951
aI923
aI924
atp2826
Rp2827
sI942
g1
((lp2828
I944
aI929
atp2829
Rp2830
sI943
g1
((lp2831
I944
aI924
aI941
atp2832
Rp2833
sI944
g1
((lp2834
I924
aI950
aI942
aI943
atp2835
Rp2836
sI945
g1
((lp2837
I947
atp2838
Rp2839
sI946
g1
((lp2840
I961
aI923
aI941
atp2841
Rp2842
sI947
g1
((lp2843
I952
aI945
aI948
aI972
atp2844
Rp2845
sI948
g1
((lp2846
I931
aI930
aI947
aI972
aI949
atp2847
Rp2848
sI949
g1
((lp2849
I956
aI972
aI948
aI925
atp2850
Rp2851
sI950
g1
((lp2852
I944
aI951
atp2853
Rp2854
sI951
g1
((lp2855
I953
aI962
aI941
aI950
atp2856
Rp2857
sI952
g1
((lp2858
I947
aI972
aI955
atp2859
Rp2860
sI953
g1
((lp2861
I951
atp2862
Rp2863
sI954
g1
((lp2864
I955
aI972
atp2865
Rp2866
sI955
g1
((lp2867
I952
aI954
aI972
atp2868
Rp2869
sI956
g1
((lp2870
I835
aI872
aI972
aI909
aI949
aI888
aI762
aI925
aI798
aI799
atp2871
Rp2872
sI957
g1
((lp2873
I960
aI972
atp2874
Rp2875
sI958
g1
((lp2876
I959
atp2877
Rp2878
sI959
g1
((lp2879
I960
aI958
atp2880
Rp2881
sI960
g1
((lp2882
I972
aI957
aI959
atp2883
Rp2884
sI961
g1
((lp2885
I946
aI965
aI966
atp2886
Rp2887
sI962
g1
((lp2888
I967
aI965
aI951
atp2889
Rp2890
sI963
g1
((lp2891
I968
aI964
atp2892
Rp2893
sI964
g1
((lp2894
I968
aI963
aI972
atp2895
Rp2896
sI965
g1
((lp2897
I961
aI962
aI966
aI967
aI941
aI974
atp2898
Rp2899
sI966
g1
((lp2900
I961
aI965
aI973
atp2901
Rp2902
sI967
g1
((lp2903
I968
aI962
aI965
aI975
atp2904
Rp2905
sI968
g1
((lp2906
I964
aI963
aI972
aI975
aI967
atp2907
Rp2908
sI969
g1
((lp2909
I936
aI970
aI935
atp2910
Rp2911
sI970
g1
((lp2912
I969
aI938
aI971
aI937
atp2913
Rp2914
sI971
g1
((lp2915
I970
aI939
aI940
atp2916
Rp2917
sI972
g1
((lp2918
I960
aI964
aI968
aI975
aI947
aI948
aI949
aI952
aI954
aI955
aI956
aI957
atp2919
Rp2920
sI973
g1
((lp2921
I976
aI966
aI974
atp2922
Rp2923
sI974
g1
((lp2924
I976
aI965
aI973
aI975
atp2925
Rp2926
sI975
g1
((lp2927
I968
aI972
aI974
aI967
atp2928
Rp2929
sI976
g1
((lp2930
I973
aI974
atp2931
Rp2932
s.