(lp0
(I3
I800
cnumpy.core.multiarray
scalar
p1
(cnumpy
dtype
p2
(S'i2'
p3
I0
I1
tp4
Rp5
(I3
S'<'
p6
NNNI-1
I-1
I0
tp7
bS'\x06\x00'
p8
tp9
Rp10
I7
tp11
a(I3
I902
g1
(g5
S'\x06\x00'
p12
tp13
Rp14
I7
tp15
a(I6
I444
g1
(g5
S'\x0c\x00'
p16
tp17
Rp18
I15
tp19
a(I6
I460
g1
(g5
S'\x0c\x00'
p20
tp21
Rp22
I15
tp23
a(I6
I476
g1
(g5
S'\x0c\x00'
p24
tp25
Rp26
I15
tp27
a(I6
I492
g1
(g5
S'\x0c\x00'
p28
tp29
Rp30
I15
tp31
a(I6
I788
g1
(g5
S'\x0c\x00'
p32
tp33
Rp34
I15
tp35
a(I9
I800
g1
(g5
S'\x06\x00'
p36
tp37
Rp38
I7
tp39
a(I9
I902
g1
(g5
S'\x06\x00'
p40
tp41
Rp42
I7
tp43
a(I12
I765
g1
(g5
S'\x19\x00'
p44
tp45
Rp46
I31
tp47
a(I12
I921
g1
(g5
S'\x19\x00'
p48
tp49
Rp50
I31
tp51
a(I15
I440
g1
(g5
S'\x06\x00'
p52
tp53
Rp54
I7
tp55
a(I15
I480
g1
(g5
S'\x06\x00'
p56
tp57
Rp58
I7
tp59
a(I15
I800
g1
(g5
S'\x06\x00'
p60
tp61
Rp62
I7
tp63
a(I15
I902
g1
(g5
S'\x06\x00'
p64
tp65
Rp66
I7
tp67
a(I18
I492
g1
(g5
S'\r\x00'
p68
tp69
Rp70
I16
tp71
a(I18
I788
g1
(g5
S'\r\x00'
p72
tp73
Rp74
I16
tp75
a(I21
I440
g1
(g5
S'\x07\x00'
p76
tp77
Rp78
I8
tp79
a(I21
I480
g1
(g5
S'\x07\x00'
p80
tp81
Rp82
I8
tp83
a(I21
I800
g1
(g5
S'\x07\x00'
p84
tp85
Rp86
I8
tp87
a(I21
I902
g1
(g5
S'\x07\x00'
p88
tp89
Rp90
I8
tp91
a(I25
I31
g1
(g5
S'2\x00'
p92
tp93
Rp94
I62
tp95
a(I25
I93
g1
(g5
S'2\x00'
p96
tp97
Rp98
I62
tp99
a(I25
I156
g1
(g5
S'2\x00'
p100
tp101
Rp102
I62
tp103
a(I25
I218
g1
(g5
S'2\x00'
p104
tp105
Rp106
I62
tp107
a(I25
I406
g1
(g5
S'2\x00'
p108
tp109
Rp110
I62
tp111
a(I25
I656
g1
(g5
S'2\x00'
p112
tp113
Rp114
I62
tp115
a(I25
I718
g1
(g5
S'2\x00'
p116
tp117
Rp118
I62
tp119
a(I25
I968
g1
(g5
S'2\x00'
p120
tp121
Rp122
I62
tp123
a(I28
I800
g1
(g5
S'\x06\x00'
p124
tp125
Rp126
I7
tp127
a(I28
I902
g1
(g5
S'\x06\x00'
p128
tp129
Rp130
I7
tp131
a(I31
I492
g1
(g5
S'\x0c\x00'
p132
tp133
Rp134
I15
tp135
a(I31
I788
g1
(g5
S'\x0c\x00'
p136
tp137
Rp138
I15
tp139
a(I34
I800
g1
(g5
S'\x06\x00'
p140
tp141
Rp142
I7
tp143
a(I34
I902
g1
(g5
S'\x06\x00'
p144
tp145
Rp146
I7
tp147
a(I37
I765
g1
(g5
S'\x19\x00'
p148
tp149
Rp150
I31
tp151
a(I37
I921
g1
(g5
S'\x19\x00'
p152
tp153
Rp154
I31
tp155
a(I40
I800
g1
(g5
S'\x06\x00'
p156
tp157
Rp158
I7
tp159
a(I40
I902
g1
(g5
S'\x06\x00'
p160
tp161
Rp162
I7
tp163
a(I43
I492
g1
(g5
S'\r\x00'
p164
tp165
Rp166
I16
tp167
a(I43
I788
g1
(g5
S'\r\x00'
p168
tp169
Rp170
I16
tp171
a(I46
I480
g1
(g5
S'\x07\x00'
p172
tp173
Rp174
I8
tp175
a(I46
I800
g1
(g5
S'\x07\x00'
p176
tp177
Rp178
I8
tp179
a(I46
I902
g1
(g5
S'\x07\x00'
p180
tp181
Rp182
I8
tp183
a(I50
I312
g1
(g5
S'd\x00'
p184
tp185
Rp186
I125
tp187
a(I50
I562
g1
(g5
S'd\x00'
p188
tp189
Rp190
I125
tp191
a(I53
I800
g1
(g5
S'\x06\x00'
p192
tp193
Rp194
I7
tp195
a(I53
I902
g1
(g5
S'\x06\x00'
p196
tp197
Rp198
I7
tp199
a(I56
I444
g1
(g5
S'\x0c\x00'
p200
tp201
Rp202
I15
tp203
a(I56
I632
g1
(g5
S'\x0c\x00'
p204
tp205
Rp206
I15
tp207
a(I56
I648
g1
(g5
S'\x0c\x00'
p208
tp209
Rp210
I15
tp211
a(I56
I663
g1
(g5
S'\x0c\x00'
p212
tp213
Rp214
I15
tp215
a(I56
I679
g1
(g5
S'\x0c\x00'
p216
tp217
Rp218
I15
tp219
a(I56
I694
g1
(g5
S'\x0c\x00'
p220
tp221
Rp222
I15
tp223
a(I56
I710
g1
(g5
S'\x0c\x00'
p224
tp225
Rp226
I15
tp227
a(I56
I788
g1
(g5
S'\x0c\x00'
p228
tp229
Rp230
I15
tp231
a(I59
I456
g1
(g5
S'\x06\x00'
p232
tp233
Rp234
I7
tp235
a(I59
I464
g1
(g5
S'\x06\x00'
p236
tp237
Rp238
I7
tp239
a(I59
I800
g1
(g5
S'\x06\x00'
p240
tp241
Rp242
I7
tp243
a(I59
I902
g1
(g5
S'\x06\x00'
p244
tp245
Rp246
I7
tp247
a(I62
I77
g1
(g5
S'\x19\x00'
p248
tp249
Rp250
I31
tp251
a(I62
I109
g1
(g5
S'\x19\x00'
p252
tp253
Rp254
I31
tp255
a(I62
I140
g1
(g5
S'\x19\x00'
p256
tp257
Rp258
I31
tp259
a(I62
I171
g1
(g5
S'\x19\x00'
p260
tp261
Rp262
I31
tp263
a(I62
I484
g1
(g5
S'\x19\x00'
p264
tp265
Rp266
I31
tp267
a(I62
I734
g1
(g5
S'\x19\x00'
p268
tp269
Rp270
I31
tp271
a(I62
I765
g1
(g5
S'\x19\x00'
p272
tp273
Rp274
I31
tp275
a(I62
I921
g1
(g5
S'\x19\x00'
p276
tp277
Rp278
I31
tp279
a(I65
I628
g1
(g5
S'\x06\x00'
p280
tp281
Rp282
I7
tp283
a(I65
I636
g1
(g5
S'\x06\x00'
p284
tp285
Rp286
I7
tp287
a(I65
I644
g1
(g5
S'\x06\x00'
p288
tp289
Rp290
I7
tp291
a(I65
I652
g1
(g5
S'\x06\x00'
p292
tp293
Rp294
I7
tp295
a(I65
I659
g1
(g5
S'\x06\x00'
p296
tp297
Rp298
I7
tp299
a(I65
I667
g1
(g5
S'\x06\x00'
p300
tp301
Rp302
I7
tp303
a(I65
I675
g1
(g5
S'\x06\x00'
p304
tp305
Rp306
I7
tp307
a(I65
I683
g1
(g5
S'\x06\x00'
p308
tp309
Rp310
I7
tp311
a(I65
I690
g1
(g5
S'\x06\x00'
p312
tp313
Rp314
I7
tp315
a(I65
I698
g1
(g5
S'\x06\x00'
p316
tp317
Rp318
I7
tp319
a(I65
I706
g1
(g5
S'\x06\x00'
p320
tp321
Rp322
I7
tp323
a(I65
I714
g1
(g5
S'\x06\x00'
p324
tp325
Rp326
I7
tp327
a(I65
I902
g1
(g5
S'\x06\x00'
p328
tp329
Rp330
I7
tp331
a(I68
I444
g1
(g5
S'\r\x00'
p332
tp333
Rp334
I16
tp335
a(I68
I460
g1
(g5
S'\r\x00'
p336
tp337
Rp338
I16
tp339
a(I68
I788
g1
(g5
S'\r\x00'
p340
tp341
Rp342
I16
tp343
a(I71
I902
g1
(g5
S'\x07\x00'
p344
tp345
Rp346
I8
tp347
a(I75
I31
g1
(g5
S'2\x00'
p348
tp349
Rp350
I62
tp351
a(I75
I218
g1
(g5
S'2\x00'
p352
tp353
Rp354
I62
tp355
a(I75
I406
g1
(g5
S'2\x00'
p356
tp357
Rp358
I62
tp359
a(I75
I968
g1
(g5
S'2\x00'
p360
tp361
Rp362
I62
tp363
a(I78
I902
g1
(g5
S'\x06\x00'
p364
tp365
Rp366
I7
tp367
a(I81
I101
g1
(g5
S'\x0c\x00'
p368
tp369
Rp370
I15
tp371
a(I81
I117
g1
(g5
S'\x0c\x00'
p372
tp373
Rp374
I15
tp375
a(I81
I132
g1
(g5
S'\x0c\x00'
p376
tp377
Rp378
I15
tp379
a(I81
I148
g1
(g5
S'\x0c\x00'
p380
tp381
Rp382
I15
tp383
a(I81
I788
g1
(g5
S'\x0c\x00'
p384
tp385
Rp386
I15
tp387
a(I84
I902
g1
(g5
S'\x06\x00'
p388
tp389
Rp390
I7
tp391
a(I87
I77
g1
(g5
S'\x19\x00'
p392
tp393
Rp394
I31
tp395
a(I87
I171
g1
(g5
S'\x19\x00'
p396
tp397
Rp398
I31
tp399
a(I87
I452
g1
(g5
S'\x19\x00'
p400
tp401
Rp402
I31
tp403
a(I87
I484
g1
(g5
S'\x19\x00'
p404
tp405
Rp406
I31
tp407
a(I87
I734
g1
(g5
S'\x19\x00'
p408
tp409
Rp410
I31
tp411
a(I87
I765
g1
(g5
S'\x19\x00'
p412
tp413
Rp414
I31
tp415
a(I87
I921
g1
(g5
S'\x19\x00'
p416
tp417
Rp418
I31
tp419
a(I90
I97
g1
(g5
S'\x06\x00'
p420
tp421
Rp422
I7
tp423
a(I90
I128
g1
(g5
S'\x06\x00'
p424
tp425
Rp426
I7
tp427
a(I90
I136
g1
(g5
S'\x06\x00'
p428
tp429
Rp430
I7
tp431
a(I93
I148
g1
(g5
S'\r\x00'
p432
tp433
Rp434
I16
tp435
a(I93
I788
g1
(g5
S'\r\x00'
p436
tp437
Rp438
I16
tp439
a(I93
I898
g1
(g5
S'\r\x00'
p440
tp441
Rp442
I16
tp443
a(I96
I136
g1
(g5
S'\x07\x00'
p444
tp445
Rp446
I8
tp447
a(I106
I148
g1
(g5
S'\x0c\x00'
p448
tp449
Rp450
I15
tp451
a(I106
I788
g1
(g5
S'\x0c\x00'
p452
tp453
Rp454
I15
tp455
a(I106
I898
g1
(g5
S'\x0c\x00'
p456
tp457
Rp458
I15
tp459
a(I112
I77
g1
(g5
S'\x19\x00'
p460
tp461
Rp462
I31
tp463
a(I112
I171
g1
(g5
S'\x19\x00'
p464
tp465
Rp466
I31
tp467
a(I112
I202
g1
(g5
S'\x19\x00'
p468
tp469
Rp470
I31
tp471
a(I112
I234
g1
(g5
S'\x19\x00'
p472
tp473
Rp474
I31
tp475
a(I112
I265
g1
(g5
S'\x19\x00'
p476
tp477
Rp478
I31
tp479
a(I112
I296
g1
(g5
S'\x19\x00'
p480
tp481
Rp482
I31
tp483
a(I112
I327
g1
(g5
S'\x19\x00'
p484
tp485
Rp486
I31
tp487
a(I112
I359
g1
(g5
S'\x19\x00'
p488
tp489
Rp490
I31
tp491
a(I112
I734
g1
(g5
S'\x19\x00'
p492
tp493
Rp494
I31
tp495
a(I112
I765
g1
(g5
S'\x19\x00'
p496
tp497
Rp498
I31
tp499
a(I112
I921
g1
(g5
S'\x19\x00'
p500
tp501
Rp502
I31
tp503
a(I118
I148
g1
(g5
S'\r\x00'
p504
tp505
Rp506
I16
tp507
a(I118
I788
g1
(g5
S'\r\x00'
p508
tp509
Rp510
I16
tp511
a(I118
I898
g1
(g5
S'\r\x00'
p512
tp513
Rp514
I16
tp515
a(I121
I136
g1
(g5
S'\x07\x00'
p516
tp517
Rp518
I8
tp519
a(I125
I31
g1
(g5
S'2\x00'
p520
tp521
Rp522
I62
tp523
a(I125
I968
g1
(g5
S'2\x00'
p524
tp525
Rp526
I62
tp527
a(I128
I97
g1
(g5
S'\x06\x00'
p528
tp529
Rp530
I7
tp531
a(I128
I136
g1
(g5
S'\x06\x00'
p532
tp533
Rp534
I7
tp535
a(I128
I238
g1
(g5
S'\x06\x00'
p536
tp537
Rp538
I7
tp539
a(I128
I246
g1
(g5
S'\x06\x00'
p540
tp541
Rp542
I7
tp543
a(I128
I315
g1
(g5
S'\x06\x00'
p544
tp545
Rp546
I7
tp547
a(I128
I323
g1
(g5
S'\x06\x00'
p548
tp549
Rp550
I7
tp551
a(I128
I894
g1
(g5
S'\x06\x00'
p552
tp553
Rp554
I7
tp555
a(I128
I902
g1
(g5
S'\x06\x00'
p556
tp557
Rp558
I7
tp559
a(I131
I148
g1
(g5
S'\x0c\x00'
p560
tp561
Rp562
I15
tp563
a(I131
I226
g1
(g5
S'\x0c\x00'
p564
tp565
Rp566
I15
tp567
a(I131
I257
g1
(g5
S'\x0c\x00'
p568
tp569
Rp570
I15
tp571
a(I131
I273
g1
(g5
S'\x0c\x00'
p572
tp573
Rp574
I15
tp575
a(I131
I335
g1
(g5
S'\x0c\x00'
p576
tp577
Rp578
I15
tp579
a(I131
I788
g1
(g5
S'\x0c\x00'
p580
tp581
Rp582
I15
tp583
a(I134
I97
g1
(g5
S'\x06\x00'
p584
tp585
Rp586
I7
tp587
a(I134
I105
g1
(g5
S'\x06\x00'
p588
tp589
Rp590
I7
tp591
a(I134
I113
g1
(g5
S'\x06\x00'
p592
tp593
Rp594
I7
tp595
a(I134
I121
g1
(g5
S'\x06\x00'
p596
tp597
Rp598
I7
tp599
a(I134
I128
g1
(g5
S'\x06\x00'
p600
tp601
Rp602
I7
tp603
a(I134
I136
g1
(g5
S'\x06\x00'
p604
tp605
Rp606
I7
tp607
a(I134
I246
g1
(g5
S'\x06\x00'
p608
tp609
Rp610
I7
tp611
a(I134
I315
g1
(g5
S'\x06\x00'
p612
tp613
Rp614
I7
tp615
a(I134
I902
g1
(g5
S'\x06\x00'
p616
tp617
Rp618
I7
tp619
a(I137
I77
g1
(g5
S'\x19\x00'
p620
tp621
Rp622
I31
tp623
a(I137
I171
g1
(g5
S'\x19\x00'
p624
tp625
Rp626
I31
tp627
a(I137
I202
g1
(g5
S'\x19\x00'
p628
tp629
Rp630
I31
tp631
a(I137
I296
g1
(g5
S'\x19\x00'
p632
tp633
Rp634
I31
tp635
a(I137
I359
g1
(g5
S'\x19\x00'
p636
tp637
Rp638
I31
tp639
a(I137
I734
g1
(g5
S'\x19\x00'
p640
tp641
Rp642
I31
tp643
a(I137
I765
g1
(g5
S'\x19\x00'
p644
tp645
Rp646
I31
tp647
a(I137
I921
g1
(g5
S'\x19\x00'
p648
tp649
Rp650
I31
tp651
a(I140
I222
g1
(g5
S'\x06\x00'
p652
tp653
Rp654
I7
tp655
a(I140
I253
g1
(g5
S'\x06\x00'
p656
tp657
Rp658
I7
tp659
a(I140
I261
g1
(g5
S'\x06\x00'
p660
tp661
Rp662
I7
tp663
a(I140
I315
g1
(g5
S'\x06\x00'
p664
tp665
Rp666
I7
tp667
a(I140
I339
g1
(g5
S'\x06\x00'
p668
tp669
Rp670
I7
tp671
a(I140
I902
g1
(g5
S'\x06\x00'
p672
tp673
Rp674
I7
tp675
a(I143
I101
g1
(g5
S'\r\x00'
p676
tp677
Rp678
I16
tp679
a(I143
I117
g1
(g5
S'\r\x00'
p680
tp681
Rp682
I16
tp683
a(I143
I132
g1
(g5
S'\r\x00'
p684
tp685
Rp686
I16
tp687
a(I143
I148
g1
(g5
S'\r\x00'
p688
tp689
Rp690
I16
tp691
a(I143
I273
g1
(g5
S'\r\x00'
p692
tp693
Rp694
I16
tp695
a(I143
I788
g1
(g5
S'\r\x00'
p696
tp697
Rp698
I16
tp699
a(I146
I261
g1
(g5
S'\x07\x00'
p700
tp701
Rp702
I8
tp703
a(I146
I902
g1
(g5
S'\x07\x00'
p704
tp705
Rp706
I8
tp707
a(I150
I437
g1
(g5
S'd\x00'
p708
tp709
Rp710
I125
tp711
a(I150
I562
g1
(g5
S'd\x00'
p712
tp713
Rp714
I125
tp715
a(I153
I206
g1
(g5
S'\x06\x00'
p716
tp717
Rp718
I7
tp719
a(I153
I214
g1
(g5
S'\x06\x00'
p720
tp721
Rp722
I7
tp723
a(I153
I300
g1
(g5
S'\x06\x00'
p724
tp725
Rp726
I7
tp727
a(I153
I355
g1
(g5
S'\x06\x00'
p728
tp729
Rp730
I7
tp731
a(I153
I800
g1
(g5
S'\x06\x00'
p732
tp733
Rp734
I7
tp735
a(I153
I902
g1
(g5
S'\x06\x00'
p736
tp737
Rp738
I7
tp739
a(I156
I194
g1
(g5
S'\x0c\x00'
p740
tp741
Rp742
I15
tp743
a(I156
I273
g1
(g5
S'\x0c\x00'
p744
tp745
Rp746
I15
tp747
a(I156
I288
g1
(g5
S'\x0c\x00'
p748
tp749
Rp750
I15
tp751
a(I156
I367
g1
(g5
S'\x0c\x00'
p752
tp753
Rp754
I15
tp755
a(I156
I788
g1
(g5
S'\x0c\x00'
p756
tp757
Rp758
I15
tp759
a(I159
I206
g1
(g5
S'\x06\x00'
p760
tp761
Rp762
I7
tp763
a(I159
I800
g1
(g5
S'\x06\x00'
p764
tp765
Rp766
I7
tp767
a(I159
I902
g1
(g5
S'\x06\x00'
p768
tp769
Rp770
I7
tp771
a(I162
I734
g1
(g5
S'\x19\x00'
p772
tp773
Rp774
I31
tp775
a(I162
I765
g1
(g5
S'\x19\x00'
p776
tp777
Rp778
I31
tp779
a(I162
I921
g1
(g5
S'\x19\x00'
p780
tp781
Rp782
I31
tp783
a(I165
I190
g1
(g5
S'\x06\x00'
p784
tp785
Rp786
I7
tp787
a(I165
I198
g1
(g5
S'\x06\x00'
p788
tp789
Rp790
I7
tp791
a(I165
I277
g1
(g5
S'\x06\x00'
p792
tp793
Rp794
I7
tp795
a(I165
I284
g1
(g5
S'\x06\x00'
p796
tp797
Rp798
I7
tp799
a(I165
I363
g1
(g5
S'\x06\x00'
p800
tp801
Rp802
I7
tp803
a(I165
I371
g1
(g5
S'\x06\x00'
p804
tp805
Rp806
I7
tp807
a(I165
I800
g1
(g5
S'\x06\x00'
p808
tp809
Rp810
I7
tp811
a(I165
I902
g1
(g5
S'\x06\x00'
p812
tp813
Rp814
I7
tp815
a(I168
I632
g1
(g5
S'\r\x00'
p816
tp817
Rp818
I16
tp819
a(I168
I648
g1
(g5
S'\r\x00'
p820
tp821
Rp822
I16
tp823
a(I168
I663
g1
(g5
S'\r\x00'
p824
tp825
Rp826
I16
tp827
a(I168
I679
g1
(g5
S'\r\x00'
p828
tp829
Rp830
I16
tp831
a(I168
I694
g1
(g5
S'\r\x00'
p832
tp833
Rp834
I16
tp835
a(I168
I710
g1
(g5
S'\r\x00'
p836
tp837
Rp838
I16
tp839
a(I168
I788
g1
(g5
S'\r\x00'
p840
tp841
Rp842
I16
tp843
a(I171
I190
g1
(g5
S'\x07\x00'
p844
tp845
Rp846
I8
tp847
a(I171
I284
g1
(g5
S'\x07\x00'
p848
tp849
Rp850
I8
tp851
a(I171
I371
g1
(g5
S'\x07\x00'
p852
tp853
Rp854
I8
tp855
a(I171
I800
g1
(g5
S'\x07\x00'
p856
tp857
Rp858
I8
tp859
a(I171
I902
g1
(g5
S'\x07\x00'
p860
tp861
Rp862
I8
tp863
a(I175
I31
g1
(g5
S'2\x00'
p864
tp865
Rp866
I62
tp867
a(I175
I93
g1
(g5
S'2\x00'
p868
tp869
Rp870
I62
tp871
a(I175
I156
g1
(g5
S'2\x00'
p872
tp873
Rp874
I62
tp875
a(I175
I968
g1
(g5
S'2\x00'
p876
tp877
Rp878
I62
tp879
a(I178
I190
g1
(g5
S'\x06\x00'
p880
tp881
Rp882
I7
tp883
a(I178
I800
g1
(g5
S'\x06\x00'
p884
tp885
Rp886
I7
tp887
a(I178
I902
g1
(g5
S'\x06\x00'
p888
tp889
Rp890
I7
tp891
a(I181
I788
g1
(g5
S'\x0c\x00'
p892
tp893
Rp894
I15
tp895
a(I184
I190
g1
(g5
S'\x06\x00'
p896
tp897
Rp898
I7
tp899
a(I184
I800
g1
(g5
S'\x06\x00'
p900
tp901
Rp902
I7
tp903
a(I184
I902
g1
(g5
S'\x06\x00'
p904
tp905
Rp906
I7
tp907
a(I187
I640
g1
(g5
S'\x19\x00'
p908
tp909
Rp910
I31
tp911
a(I187
I671
g1
(g5
S'\x19\x00'
p912
tp913
Rp914
I31
tp915
a(I187
I702
g1
(g5
S'\x19\x00'
p916
tp917
Rp918
I31
tp919
a(I187
I734
g1
(g5
S'\x19\x00'
p920
tp921
Rp922
I31
tp923
a(I187
I765
g1
(g5
S'\x19\x00'
p924
tp925
Rp926
I31
tp927
a(I187
I921
g1
(g5
S'\x19\x00'
p928
tp929
Rp930
I31
tp931
a(I190
I371
g1
(g5
S'\x06\x00'
p932
tp933
Rp934
I7
tp935
a(I190
I800
g1
(g5
S'\x06\x00'
p936
tp937
Rp938
I7
tp939
a(I190
I902
g1
(g5
S'\x06\x00'
p940
tp941
Rp942
I7
tp943
a(I193
I194
g1
(g5
S'\r\x00'
p944
tp945
Rp946
I16
tp947
a(I193
I788
g1
(g5
S'\r\x00'
p948
tp949
Rp950
I16
tp951
a(I196
I363
g1
(g5
S'\x07\x00'
p952
tp953
Rp954
I8
tp955
a(I196
I371
g1
(g5
S'\x07\x00'
p956
tp957
Rp958
I8
tp959
a(I196
I800
g1
(g5
S'\x07\x00'
p960
tp961
Rp962
I8
tp963
a(I196
I902
g1
(g5
S'\x07\x00'
p964
tp965
Rp966
I8
tp967
a(I203
I206
g1
(g5
S'\x06\x00'
p968
tp969
Rp970
I7
tp971
a(I203
I355
g1
(g5
S'\x06\x00'
p972
tp973
Rp974
I7
tp975
a(I203
I550
g1
(g5
S'\x06\x00'
p976
tp977
Rp978
I7
tp979
a(I203
I558
g1
(g5
S'\x06\x00'
p980
tp981
Rp982
I7
tp983
a(I203
I565
g1
(g5
S'\x06\x00'
p984
tp985
Rp986
I7
tp987
a(I203
I573
g1
(g5
S'\x06\x00'
p988
tp989
Rp990
I7
tp991
a(I203
I581
g1
(g5
S'\x06\x00'
p992
tp993
Rp994
I7
tp995
a(I203
I589
g1
(g5
S'\x06\x00'
p996
tp997
Rp998
I7
tp999
a(I203
I800
g1
(g5
S'\x06\x00'
p1000
tp1001
Rp1002
I7
tp1003
a(I203
I902
g1
(g5
S'\x06\x00'
p1004
tp1005
Rp1006
I7
tp1007
a(I206
I194
g1
(g5
S'\x0c\x00'
p1008
tp1009
Rp1010
I15
tp1011
a(I206
I367
g1
(g5
S'\x0c\x00'
p1012
tp1013
Rp1014
I15
tp1015
a(I206
I538
g1
(g5
S'\x0c\x00'
p1016
tp1017
Rp1018
I15
tp1019
a(I206
I788
g1
(g5
S'\x0c\x00'
p1020
tp1021
Rp1022
I15
tp1023
a(I209
I206
g1
(g5
S'\x06\x00'
p1024
tp1025
Rp1026
I7
tp1027
a(I209
I214
g1
(g5
S'\x06\x00'
p1028
tp1029
Rp1030
I7
tp1031
a(I209
I355
g1
(g5
S'\x06\x00'
p1032
tp1033
Rp1034
I7
tp1035
a(I209
I800
g1
(g5
S'\x06\x00'
p1036
tp1037
Rp1038
I7
tp1039
a(I209
I902
g1
(g5
S'\x06\x00'
p1040
tp1041
Rp1042
I7
tp1043
a(I212
I515
g1
(g5
S'\x19\x00'
p1044
tp1045
Rp1046
I31
tp1047
a(I212
I609
g1
(g5
S'\x19\x00'
p1048
tp1049
Rp1050
I31
tp1051
a(I212
I640
g1
(g5
S'\x19\x00'
p1052
tp1053
Rp1054
I31
tp1055
a(I212
I671
g1
(g5
S'\x19\x00'
p1056
tp1057
Rp1058
I31
tp1059
a(I212
I702
g1
(g5
S'\x19\x00'
p1060
tp1061
Rp1062
I31
tp1063
a(I212
I734
g1
(g5
S'\x19\x00'
p1064
tp1065
Rp1066
I31
tp1067
a(I212
I765
g1
(g5
S'\x19\x00'
p1068
tp1069
Rp1070
I31
tp1071
a(I212
I921
g1
(g5
S'\x19\x00'
p1072
tp1073
Rp1074
I31
tp1075
a(I215
I222
g1
(g5
S'\x06\x00'
p1076
tp1077
Rp1078
I7
tp1079
a(I215
I800
g1
(g5
S'\x06\x00'
p1080
tp1081
Rp1082
I7
tp1083
a(I215
I902
g1
(g5
S'\x06\x00'
p1084
tp1085
Rp1086
I7
tp1087
a(I218
I194
g1
(g5
S'\r\x00'
p1088
tp1089
Rp1090
I16
tp1091
a(I218
I210
g1
(g5
S'\r\x00'
p1092
tp1093
Rp1094
I16
tp1095
a(I218
I351
g1
(g5
S'\r\x00'
p1096
tp1097
Rp1098
I16
tp1099
a(I218
I367
g1
(g5
S'\r\x00'
p1100
tp1101
Rp1102
I16
tp1103
a(I218
I538
g1
(g5
S'\r\x00'
p1104
tp1105
Rp1106
I16
tp1107
a(I218
I788
g1
(g5
S'\r\x00'
p1108
tp1109
Rp1110
I16
tp1111
a(I221
I222
g1
(g5
S'\x07\x00'
p1112
tp1113
Rp1114
I8
tp1115
a(I221
I339
g1
(g5
S'\x07\x00'
p1116
tp1117
Rp1118
I8
tp1119
a(I221
I800
g1
(g5
S'\x07\x00'
p1120
tp1121
Rp1122
I8
tp1123
a(I221
I902
g1
(g5
S'\x07\x00'
p1124
tp1125
Rp1126
I8
tp1127
a(I225
I156
g1
(g5
S'2\x00'
p1128
tp1129
Rp1130
I62
tp1131
a(I225
I968
g1
(g5
S'2\x00'
p1132
tp1133
Rp1134
I62
tp1135
a(I228
I222
g1
(g5
S'\x06\x00'
p1136
tp1137
Rp1138
I7
tp1139
a(I228
I339
g1
(g5
S'\x06\x00'
p1140
tp1141
Rp1142
I7
tp1143
a(I228
I628
g1
(g5
S'\x06\x00'
p1144
tp1145
Rp1146
I7
tp1147
a(I228
I800
g1
(g5
S'\x06\x00'
p1148
tp1149
Rp1150
I7
tp1151
a(I228
I902
g1
(g5
S'\x06\x00'
p1152
tp1153
Rp1154
I7
tp1155
a(I231
I194
g1
(g5
S'\x0c\x00'
p1156
tp1157
Rp1158
I15
tp1159
a(I231
I210
g1
(g5
S'\x0c\x00'
p1160
tp1161
Rp1162
I15
tp1163
a(I231
I351
g1
(g5
S'\x0c\x00'
p1164
tp1165
Rp1166
I15
tp1167
a(I231
I367
g1
(g5
S'\x0c\x00'
p1168
tp1169
Rp1170
I15
tp1171
a(I231
I507
g1
(g5
S'\x0c\x00'
p1172
tp1173
Rp1174
I15
tp1175
a(I231
I523
g1
(g5
S'\x0c\x00'
p1176
tp1177
Rp1178
I15
tp1179
a(I231
I538
g1
(g5
S'\x0c\x00'
p1180
tp1181
Rp1182
I15
tp1183
a(I231
I601
g1
(g5
S'\x0c\x00'
p1184
tp1185
Rp1186
I15
tp1187
a(I231
I617
g1
(g5
S'\x0c\x00'
p1188
tp1189
Rp1190
I15
tp1191
a(I231
I788
g1
(g5
S'\x0c\x00'
p1192
tp1193
Rp1194
I15
tp1195
a(I234
I222
g1
(g5
S'\x06\x00'
p1196
tp1197
Rp1198
I7
tp1199
a(I234
I800
g1
(g5
S'\x06\x00'
p1200
tp1201
Rp1202
I7
tp1203
a(I234
I902
g1
(g5
S'\x06\x00'
p1204
tp1205
Rp1206
I7
tp1207
a(I237
I734
g1
(g5
S'\x19\x00'
p1208
tp1209
Rp1210
I31
tp1211
a(I237
I765
g1
(g5
S'\x19\x00'
p1212
tp1213
Rp1214
I31
tp1215
a(I237
I921
g1
(g5
S'\x19\x00'
p1216
tp1217
Rp1218
I31
tp1219
a(I240
I206
g1
(g5
S'\x06\x00'
p1220
tp1221
Rp1222
I7
tp1223
a(I240
I214
g1
(g5
S'\x06\x00'
p1224
tp1225
Rp1226
I7
tp1227
a(I240
I355
g1
(g5
S'\x06\x00'
p1228
tp1229
Rp1230
I7
tp1231
a(I240
I503
g1
(g5
S'\x06\x00'
p1232
tp1233
Rp1234
I7
tp1235
a(I240
I511
g1
(g5
S'\x06\x00'
p1236
tp1237
Rp1238
I7
tp1239
a(I240
I519
g1
(g5
S'\x06\x00'
p1240
tp1241
Rp1242
I7
tp1243
a(I240
I527
g1
(g5
S'\x06\x00'
p1244
tp1245
Rp1246
I7
tp1247
a(I240
I534
g1
(g5
S'\x06\x00'
p1248
tp1249
Rp1250
I7
tp1251
a(I240
I542
g1
(g5
S'\x06\x00'
p1252
tp1253
Rp1254
I7
tp1255
a(I240
I597
g1
(g5
S'\x06\x00'
p1256
tp1257
Rp1258
I7
tp1259
a(I240
I605
g1
(g5
S'\x06\x00'
p1260
tp1261
Rp1262
I7
tp1263
a(I240
I613
g1
(g5
S'\x06\x00'
p1264
tp1265
Rp1266
I7
tp1267
a(I240
I621
g1
(g5
S'\x06\x00'
p1268
tp1269
Rp1270
I7
tp1271
a(I240
I800
g1
(g5
S'\x06\x00'
p1272
tp1273
Rp1274
I7
tp1275
a(I240
I902
g1
(g5
S'\x06\x00'
p1276
tp1277
Rp1278
I7
tp1279
a(I243
I194
g1
(g5
S'\r\x00'
p1280
tp1281
Rp1282
I16
tp1283
a(I243
I367
g1
(g5
S'\r\x00'
p1284
tp1285
Rp1286
I16
tp1287
a(I243
I788
g1
(g5
S'\r\x00'
p1288
tp1289
Rp1290
I16
tp1291
a(I246
I206
g1
(g5
S'\x07\x00'
p1292
tp1293
Rp1294
I8
tp1295
a(I246
I503
g1
(g5
S'\x07\x00'
p1296
tp1297
Rp1298
I8
tp1299
a(I246
I800
g1
(g5
S'\x07\x00'
p1300
tp1301
Rp1302
I8
tp1303
a(I246
I902
g1
(g5
S'\x07\x00'
p1304
tp1305
Rp1306
I8
tp1307
a(I250
I62
g1
(g5
S'd\x00'
p1308
tp1309
Rp1310
I125
tp1311
a(I250
I437
g1
(g5
S'd\x00'
p1312
tp1313
Rp1314
I125
tp1315
a(I253
I190
g1
(g5
S'\x06\x00'
p1316
tp1317
Rp1318
I7
tp1319
a(I253
I198
g1
(g5
S'\x06\x00'
p1320
tp1321
Rp1322
I7
tp1323
a(I253
I363
g1
(g5
S'\x06\x00'
p1324
tp1325
Rp1326
I7
tp1327
a(I253
I371
g1
(g5
S'\x06\x00'
p1328
tp1329
Rp1330
I7
tp1331
a(I253
I503
g1
(g5
S'\x06\x00'
p1332
tp1333
Rp1334
I7
tp1335
a(I253
I800
g1
(g5
S'\x06\x00'
p1336
tp1337
Rp1338
I7
tp1339
a(I253
I902
g1
(g5
S'\x06\x00'
p1340
tp1341
Rp1342
I7
tp1343
a(I256
I788
g1
(g5
S'\x0c\x00'
p1344
tp1345
Rp1346
I15
tp1347
a(I259
I190
g1
(g5
S'\x06\x00'
p1348
tp1349
Rp1350
I7
tp1351
a(I259
I371
g1
(g5
S'\x06\x00'
p1352
tp1353
Rp1354
I7
tp1355
a(I259
I503
g1
(g5
S'\x06\x00'
p1356
tp1357
Rp1358
I7
tp1359
a(I259
I800
g1
(g5
S'\x06\x00'
p1360
tp1361
Rp1362
I7
tp1363
a(I259
I902
g1
(g5
S'\x06\x00'
p1364
tp1365
Rp1366
I7
tp1367
a(I262
I734
g1
(g5
S'\x19\x00'
p1368
tp1369
Rp1370
I31
tp1371
a(I262
I765
g1
(g5
S'\x19\x00'
p1372
tp1373
Rp1374
I31
tp1375
a(I262
I921
g1
(g5
S'\x19\x00'
p1376
tp1377
Rp1378
I31
tp1379
a(I265
I190
g1
(g5
S'\x06\x00'
p1380
tp1381
Rp1382
I7
tp1383
a(I265
I503
g1
(g5
S'\x06\x00'
p1384
tp1385
Rp1386
I7
tp1387
a(I265
I800
g1
(g5
S'\x06\x00'
p1388
tp1389
Rp1390
I7
tp1391
a(I265
I902
g1
(g5
S'\x06\x00'
p1392
tp1393
Rp1394
I7
tp1395
a(I268
I788
g1
(g5
S'\r\x00'
p1396
tp1397
Rp1398
I16
tp1399
a(I271
I190
g1
(g5
S'\x07\x00'
p1400
tp1401
Rp1402
I8
tp1403
a(I271
I503
g1
(g5
S'\x07\x00'
p1404
tp1405
Rp1406
I8
tp1407
a(I271
I800
g1
(g5
S'\x07\x00'
p1408
tp1409
Rp1410
I8
tp1411
a(I271
I902
g1
(g5
S'\x07\x00'
p1412
tp1413
Rp1414
I8
tp1415
a(I275
I156
g1
(g5
S'2\x00'
p1416
tp1417
Rp1418
I62
tp1419
a(I275
I968
g1
(g5
S'2\x00'
p1420
tp1421
Rp1422
I62
tp1423
a(I278
I284
g1
(g5
S'\x06\x00'
p1424
tp1425
Rp1426
I7
tp1427
a(I278
I371
g1
(g5
S'\x06\x00'
p1428
tp1429
Rp1430
I7
tp1431
a(I278
I503
g1
(g5
S'\x06\x00'
p1432
tp1433
Rp1434
I7
tp1435
a(I278
I800
g1
(g5
S'\x06\x00'
p1436
tp1437
Rp1438
I7
tp1439
a(I278
I902
g1
(g5
S'\x06\x00'
p1440
tp1441
Rp1442
I7
tp1443
a(I281
I194
g1
(g5
S'\x0c\x00'
p1444
tp1445
Rp1446
I15
tp1447
a(I281
I788
g1
(g5
S'\x0c\x00'
p1448
tp1449
Rp1450
I15
tp1451
a(I284
I277
g1
(g5
S'\x06\x00'
p1452
tp1453
Rp1454
I7
tp1455
a(I284
I284
g1
(g5
S'\x06\x00'
p1456
tp1457
Rp1458
I7
tp1459
a(I284
I292
g1
(g5
S'\x06\x00'
p1460
tp1461
Rp1462
I7
tp1463
a(I284
I363
g1
(g5
S'\x06\x00'
p1464
tp1465
Rp1466
I7
tp1467
a(I284
I371
g1
(g5
S'\x06\x00'
p1468
tp1469
Rp1470
I7
tp1471
a(I284
I503
g1
(g5
S'\x06\x00'
p1472
tp1473
Rp1474
I7
tp1475
a(I284
I800
g1
(g5
S'\x06\x00'
p1476
tp1477
Rp1478
I7
tp1479
a(I284
I902
g1
(g5
S'\x06\x00'
p1480
tp1481
Rp1482
I7
tp1483
a(I287
I734
g1
(g5
S'\x19\x00'
p1484
tp1485
Rp1486
I31
tp1487
a(I287
I765
g1
(g5
S'\x19\x00'
p1488
tp1489
Rp1490
I31
tp1491
a(I287
I921
g1
(g5
S'\x19\x00'
p1492
tp1493
Rp1494
I31
tp1495
a(I290
I206
g1
(g5
S'\x06\x00'
p1496
tp1497
Rp1498
I7
tp1499
a(I290
I355
g1
(g5
S'\x06\x00'
p1500
tp1501
Rp1502
I7
tp1503
a(I290
I800
g1
(g5
S'\x06\x00'
p1504
tp1505
Rp1506
I7
tp1507
a(I290
I902
g1
(g5
S'\x06\x00'
p1508
tp1509
Rp1510
I7
tp1511
a(I293
I194
g1
(g5
S'\r\x00'
p1512
tp1513
Rp1514
I16
tp1515
a(I293
I273
g1
(g5
S'\r\x00'
p1516
tp1517
Rp1518
I16
tp1519
a(I293
I288
g1
(g5
S'\r\x00'
p1520
tp1521
Rp1522
I16
tp1523
a(I293
I367
g1
(g5
S'\r\x00'
p1524
tp1525
Rp1526
I16
tp1527
a(I293
I507
g1
(g5
S'\r\x00'
p1528
tp1529
Rp1530
I16
tp1531
a(I293
I523
g1
(g5
S'\r\x00'
p1532
tp1533
Rp1534
I16
tp1535
a(I293
I538
g1
(g5
S'\r\x00'
p1536
tp1537
Rp1538
I16
tp1539
a(I293
I601
g1
(g5
S'\r\x00'
p1540
tp1541
Rp1542
I16
tp1543
a(I293
I617
g1
(g5
S'\r\x00'
p1544
tp1545
Rp1546
I16
tp1547
a(I293
I788
g1
(g5
S'\r\x00'
p1548
tp1549
Rp1550
I16
tp1551
a(I296
I206
g1
(g5
S'\x07\x00'
p1552
tp1553
Rp1554
I8
tp1555
a(I296
I214
g1
(g5
S'\x07\x00'
p1556
tp1557
Rp1558
I8
tp1559
a(I296
I261
g1
(g5
S'\x07\x00'
p1560
tp1561
Rp1562
I8
tp1563
a(I296
I300
g1
(g5
S'\x07\x00'
p1564
tp1565
Rp1566
I8
tp1567
a(I296
I355
g1
(g5
S'\x07\x00'
p1568
tp1569
Rp1570
I8
tp1571
a(I296
I800
g1
(g5
S'\x07\x00'
p1572
tp1573
Rp1574
I8
tp1575
a(I296
I902
g1
(g5
S'\x07\x00'
p1576
tp1577
Rp1578
I8
tp1579
a(I303
I222
g1
(g5
S'\x06\x00'
p1580
tp1581
Rp1582
I7
tp1583
a(I303
I800
g1
(g5
S'\x06\x00'
p1584
tp1585
Rp1586
I7
tp1587
a(I303
I902
g1
(g5
S'\x06\x00'
p1588
tp1589
Rp1590
I7
tp1591
a(I306
I538
g1
(g5
S'\x0c\x00'
p1592
tp1593
Rp1594
I15
tp1595
a(I306
I788
g1
(g5
S'\x0c\x00'
p1596
tp1597
Rp1598
I15
tp1599
a(I306
I913
g1
(g5
S'\x0c\x00'
p1600
tp1601
Rp1602
I15
tp1603
a(I306
I929
g1
(g5
S'\x0c\x00'
p1604
tp1605
Rp1606
I15
tp1607
a(I306
I944
g1
(g5
S'\x0c\x00'
p1608
tp1609
Rp1610
I15
tp1611
a(I306
I960
g1
(g5
S'\x0c\x00'
p1612
tp1613
Rp1614
I15
tp1615
a(I306
I976
g1
(g5
S'\x0c\x00'
p1616
tp1617
Rp1618
I15
tp1619
a(I306
I992
g1
(g5
S'\x0c\x00'
p1620
tp1621
Rp1622
I15
tp1623
a(I309
I222
g1
(g5
S'\x06\x00'
p1624
tp1625
Rp1626
I7
tp1627
a(I309
I315
g1
(g5
S'\x06\x00'
p1628
tp1629
Rp1630
I7
tp1631
a(I309
I339
g1
(g5
S'\x06\x00'
p1632
tp1633
Rp1634
I7
tp1635
a(I309
I800
g1
(g5
S'\x06\x00'
p1636
tp1637
Rp1638
I7
tp1639
a(I309
I808
g1
(g5
S'\x06\x00'
p1640
tp1641
Rp1642
I7
tp1643
a(I309
I902
g1
(g5
S'\x06\x00'
p1644
tp1645
Rp1646
I7
tp1647
a(I312
I15
g1
(g5
S'\x19\x00'
p1648
tp1649
Rp1650
I31
tp1651
a(I312
I46
g1
(g5
S'\x19\x00'
p1652
tp1653
Rp1654
I31
tp1655
a(I312
I77
g1
(g5
S'\x19\x00'
p1656
tp1657
Rp1658
I31
tp1659
a(I312
I109
g1
(g5
S'\x19\x00'
p1660
tp1661
Rp1662
I31
tp1663
a(I312
I202
g1
(g5
S'\x19\x00'
p1664
tp1665
Rp1666
I31
tp1667
a(I312
I359
g1
(g5
S'\x19\x00'
p1668
tp1669
Rp1670
I31
tp1671
a(I312
I515
g1
(g5
S'\x19\x00'
p1672
tp1673
Rp1674
I31
tp1675
a(I312
I609
g1
(g5
S'\x19\x00'
p1676
tp1677
Rp1678
I31
tp1679
a(I312
I734
g1
(g5
S'\x19\x00'
p1680
tp1681
Rp1682
I31
tp1683
a(I312
I765
g1
(g5
S'\x19\x00'
p1684
tp1685
Rp1686
I31
tp1687
a(I315
I847
g1
(g5
S'\x06\x00'
p1688
tp1689
Rp1690
I7
tp1691
a(I315
I855
g1
(g5
S'\x06\x00'
p1692
tp1693
Rp1694
I7
tp1695
a(I315
I863
g1
(g5
S'\x06\x00'
p1696
tp1697
Rp1698
I7
tp1699
a(I315
I871
g1
(g5
S'\x06\x00'
p1700
tp1701
Rp1702
I7
tp1703
a(I315
I878
g1
(g5
S'\x06\x00'
p1704
tp1705
Rp1706
I7
tp1707
a(I315
I886
g1
(g5
S'\x06\x00'
p1708
tp1709
Rp1710
I7
tp1711
a(I315
I894
g1
(g5
S'\x06\x00'
p1712
tp1713
Rp1714
I7
tp1715
a(I315
I902
g1
(g5
S'\x06\x00'
p1716
tp1717
Rp1718
I7
tp1719
a(I315
I909
g1
(g5
S'\x06\x00'
p1720
tp1721
Rp1722
I7
tp1723
a(I315
I917
g1
(g5
S'\x06\x00'
p1724
tp1725
Rp1726
I7
tp1727
a(I315
I925
g1
(g5
S'\x06\x00'
p1728
tp1729
Rp1730
I7
tp1731
a(I315
I933
g1
(g5
S'\x06\x00'
p1732
tp1733
Rp1734
I7
tp1735
a(I315
I940
g1
(g5
S'\x06\x00'
p1736
tp1737
Rp1738
I7
tp1739
a(I315
I948
g1
(g5
S'\x06\x00'
p1740
tp1741
Rp1742
I7
tp1743
a(I315
I956
g1
(g5
S'\x06\x00'
p1744
tp1745
Rp1746
I7
tp1747
a(I315
I964
g1
(g5
S'\x06\x00'
p1748
tp1749
Rp1750
I7
tp1751
a(I315
I972
g1
(g5
S'\x06\x00'
p1752
tp1753
Rp1754
I7
tp1755
a(I315
I980
g1
(g5
S'\x06\x00'
p1756
tp1757
Rp1758
I7
tp1759
a(I315
I988
g1
(g5
S'\x06\x00'
p1760
tp1761
Rp1762
I7
tp1763
a(I315
I996
g1
(g5
S'\x06\x00'
p1764
tp1765
Rp1766
I7
tp1767
a(I318
I226
g1
(g5
S'\r\x00'
p1768
tp1769
Rp1770
I16
tp1771
a(I318
I242
g1
(g5
S'\r\x00'
p1772
tp1773
Rp1774
I16
tp1775
a(I318
I319
g1
(g5
S'\r\x00'
p1776
tp1777
Rp1778
I16
tp1779
a(I318
I335
g1
(g5
S'\r\x00'
p1780
tp1781
Rp1782
I16
tp1783
a(I318
I538
g1
(g5
S'\r\x00'
p1784
tp1785
Rp1786
I16
tp1787
a(I318
I788
g1
(g5
S'\r\x00'
p1788
tp1789
Rp1790
I16
tp1791
a(I318
I804
g1
(g5
S'\r\x00'
p1792
tp1793
Rp1794
I16
tp1795
a(I318
I819
g1
(g5
S'\r\x00'
p1796
tp1797
Rp1798
I16
tp1799
a(I318
I835
g1
(g5
S'\r\x00'
p1800
tp1801
Rp1802
I16
tp1803
a(I321
I628
g1
(g5
S'\x07\x00'
p1804
tp1805
Rp1806
I8
tp1807
a(I321
I636
g1
(g5
S'\x07\x00'
p1808
tp1809
Rp1810
I8
tp1811
a(I321
I644
g1
(g5
S'\x07\x00'
p1812
tp1813
Rp1814
I8
tp1815
a(I321
I652
g1
(g5
S'\x07\x00'
p1816
tp1817
Rp1818
I8
tp1819
a(I321
I659
g1
(g5
S'\x07\x00'
p1820
tp1821
Rp1822
I8
tp1823
a(I321
I667
g1
(g5
S'\x07\x00'
p1824
tp1825
Rp1826
I8
tp1827
a(I321
I675
g1
(g5
S'\x07\x00'
p1828
tp1829
Rp1830
I8
tp1831
a(I321
I683
g1
(g5
S'\x07\x00'
p1832
tp1833
Rp1834
I8
tp1835
a(I321
I690
g1
(g5
S'\x07\x00'
p1836
tp1837
Rp1838
I8
tp1839
a(I321
I698
g1
(g5
S'\x07\x00'
p1840
tp1841
Rp1842
I8
tp1843
a(I321
I706
g1
(g5
S'\x07\x00'
p1844
tp1845
Rp1846
I8
tp1847
a(I321
I714
g1
(g5
S'\x07\x00'
p1848
tp1849
Rp1850
I8
tp1851
a(I325
I156
g1
(g5
S'2\x00'
p1852
tp1853
Rp1854
I62
tp1855
a(I325
I281
g1
(g5
S'2\x00'
p1856
tp1857
Rp1858
I62
tp1859
a(I325
I406
g1
(g5
S'2\x00'
p1860
tp1861
Rp1862
I62
tp1863
a(I325
I468
g1
(g5
S'2\x00'
p1864
tp1865
Rp1866
I62
tp1867
a(I328
I831
g1
(g5
S'\x06\x00'
p1868
tp1869
Rp1870
I7
tp1871
a(I328
I839
g1
(g5
S'\x06\x00'
p1872
tp1873
Rp1874
I7
tp1875
a(I331
I538
g1
(g5
S'\x0c\x00'
p1876
tp1877
Rp1878
I15
tp1879
a(I331
I819
g1
(g5
S'\x0c\x00'
p1880
tp1881
Rp1882
I15
tp1883
a(I334
I550
g1
(g5
S'\x06\x00'
p1884
tp1885
Rp1886
I7
tp1887
a(I334
I558
g1
(g5
S'\x06\x00'
p1888
tp1889
Rp1890
I7
tp1891
a(I334
I565
g1
(g5
S'\x06\x00'
p1892
tp1893
Rp1894
I7
tp1895
a(I334
I573
g1
(g5
S'\x06\x00'
p1896
tp1897
Rp1898
I7
tp1899
a(I334
I581
g1
(g5
S'\x06\x00'
p1900
tp1901
Rp1902
I7
tp1903
a(I334
I589
g1
(g5
S'\x06\x00'
p1904
tp1905
Rp1906
I7
tp1907
a(I334
I831
g1
(g5
S'\x06\x00'
p1908
tp1909
Rp1910
I7
tp1911
a(I337
I109
g1
(g5
S'\x19\x00'
p1912
tp1913
Rp1914
I31
tp1915
a(I337
I202
g1
(g5
S'\x19\x00'
p1916
tp1917
Rp1918
I31
tp1919
a(I337
I234
g1
(g5
S'\x19\x00'
p1920
tp1921
Rp1922
I31
tp1923
a(I337
I327
g1
(g5
S'\x19\x00'
p1924
tp1925
Rp1926
I31
tp1927
a(I337
I359
g1
(g5
S'\x19\x00'
p1928
tp1929
Rp1930
I31
tp1931
a(I337
I515
g1
(g5
S'\x19\x00'
p1932
tp1933
Rp1934
I31
tp1935
a(I337
I609
g1
(g5
S'\x19\x00'
p1936
tp1937
Rp1938
I31
tp1939
a(I337
I640
g1
(g5
S'\x19\x00'
p1940
tp1941
Rp1942
I31
tp1943
a(I337
I671
g1
(g5
S'\x19\x00'
p1944
tp1945
Rp1946
I31
tp1947
a(I337
I702
g1
(g5
S'\x19\x00'
p1948
tp1949
Rp1950
I31
tp1951
a(I337
I734
g1
(g5
S'\x19\x00'
p1952
tp1953
Rp1954
I31
tp1955
a(I337
I765
g1
(g5
S'\x19\x00'
p1956
tp1957
Rp1958
I31
tp1959
a(I337
I796
g1
(g5
S'\x19\x00'
p1960
tp1961
Rp1962
I31
tp1963
a(I340
I831
g1
(g5
S'\x06\x00'
p1964
tp1965
Rp1966
I7
tp1967
a(I343
I538
g1
(g5
S'\r\x00'
p1968
tp1969
Rp1970
I16
tp1971
a(I343
I554
g1
(g5
S'\r\x00'
p1972
tp1973
Rp1974
I16
tp1975
a(I343
I569
g1
(g5
S'\r\x00'
p1976
tp1977
Rp1978
I16
tp1979
a(I343
I585
g1
(g5
S'\r\x00'
p1980
tp1981
Rp1982
I16
tp1983
a(I343
I819
g1
(g5
S'\r\x00'
p1984
tp1985
Rp1986
I16
tp1987
a(I346
I831
g1
(g5
S'\x07\x00'
p1988
tp1989
Rp1990
I8
tp1991
a(I353
I831
g1
(g5
S'\x06\x00'
p1992
tp1993
Rp1994
I7
tp1995
a(I356
I538
g1
(g5
S'\x0c\x00'
p1996
tp1997
Rp1998
I15
tp1999
a(I356
I554
g1
(g5
S'\x0c\x00'
p2000
tp2001
Rp2002
I15
tp2003
a(I356
I819
g1
(g5
S'\x0c\x00'
p2004
tp2005
Rp2006
I15
tp2007
a(I359
I831
g1
(g5
S'\x06\x00'
p2008
tp2009
Rp2010
I7
tp2011
a(I362
I109
g1
(g5
S'\x19\x00'
p2012
tp2013
Rp2014
I31
tp2015
a(I362
I452
g1
(g5
S'\x19\x00'
p2016
tp2017
Rp2018
I31
tp2019
a(I362
I484
g1
(g5
S'\x19\x00'
p2020
tp2021
Rp2022
I31
tp2023
a(I362
I515
g1
(g5
S'\x19\x00'
p2024
tp2025
Rp2026
I31
tp2027
a(I362
I577
g1
(g5
S'\x19\x00'
p2028
tp2029
Rp2030
I31
tp2031
a(I362
I609
g1
(g5
S'\x19\x00'
p2032
tp2033
Rp2034
I31
tp2035
a(I365
I534
g1
(g5
S'\x06\x00'
p2036
tp2037
Rp2038
I7
tp2039
a(I365
I542
g1
(g5
S'\x06\x00'
p2040
tp2041
Rp2042
I7
tp2043
a(I365
I831
g1
(g5
S'\x06\x00'
p2044
tp2045
Rp2046
I7
tp2047
a(I368
I554
g1
(g5
S'\r\x00'
p2048
tp2049
Rp2050
I16
tp2051
a(I368
I819
g1
(g5
S'\r\x00'
p2052
tp2053
Rp2054
I16
tp2055
a(I371
I534
g1
(g5
S'\x07\x00'
p2056
tp2057
Rp2058
I8
tp2059
a(I371
I831
g1
(g5
S'\x07\x00'
p2060
tp2061
Rp2062
I8
tp2063
a(I375
I156
g1
(g5
S'2\x00'
p2064
tp2065
Rp2066
I62
tp2067
a(I375
I218
g1
(g5
S'2\x00'
p2068
tp2069
Rp2070
I62
tp2071
a(I375
I281
g1
(g5
S'2\x00'
p2072
tp2073
Rp2074
I62
tp2075
a(I375
I343
g1
(g5
S'2\x00'
p2076
tp2077
Rp2078
I62
tp2079
a(I375
I406
g1
(g5
S'2\x00'
p2080
tp2081
Rp2082
I62
tp2083
a(I375
I656
g1
(g5
S'2\x00'
p2084
tp2085
Rp2086
I62
tp2087
a(I375
I718
g1
(g5
S'2\x00'
p2088
tp2089
Rp2090
I62
tp2091
a(I375
I781
g1
(g5
S'2\x00'
p2092
tp2093
Rp2094
I62
tp2095
a(I378
I503
g1
(g5
S'\x06\x00'
p2096
tp2097
Rp2098
I7
tp2099
a(I378
I511
g1
(g5
S'\x06\x00'
p2100
tp2101
Rp2102
I7
tp2103
a(I378
I581
g1
(g5
S'\x06\x00'
p2104
tp2105
Rp2106
I7
tp2107
a(I378
I589
g1
(g5
S'\x06\x00'
p2108
tp2109
Rp2110
I7
tp2111
a(I378
I831
g1
(g5
S'\x06\x00'
p2112
tp2113
Rp2114
I7
tp2115
a(I381
I476
g1
(g5
S'\x0c\x00'
p2116
tp2117
Rp2118
I15
tp2119
a(I381
I492
g1
(g5
S'\x0c\x00'
p2120
tp2121
Rp2122
I15
tp2123
a(I381
I601
g1
(g5
S'\x0c\x00'
p2124
tp2125
Rp2126
I15
tp2127
a(I381
I617
g1
(g5
S'\x0c\x00'
p2128
tp2129
Rp2130
I15
tp2131
a(I381
I819
g1
(g5
S'\x0c\x00'
p2132
tp2133
Rp2134
I15
tp2135
a(I384
I589
g1
(g5
S'\x06\x00'
p2136
tp2137
Rp2138
I7
tp2139
a(I384
I831
g1
(g5
S'\x06\x00'
p2140
tp2141
Rp2142
I7
tp2143
a(I387
I109
g1
(g5
S'\x19\x00'
p2144
tp2145
Rp2146
I31
tp2147
a(I387
I452
g1
(g5
S'\x19\x00'
p2148
tp2149
Rp2150
I31
tp2151
a(I390
I488
g1
(g5
S'\x06\x00'
p2152
tp2153
Rp2154
I7
tp2155
a(I390
I597
g1
(g5
S'\x06\x00'
p2156
tp2157
Rp2158
I7
tp2159
a(I390
I605
g1
(g5
S'\x06\x00'
p2160
tp2161
Rp2162
I7
tp2163
a(I390
I831
g1
(g5
S'\x06\x00'
p2164
tp2165
Rp2166
I7
tp2167
a(I393
I476
g1
(g5
S'\r\x00'
p2168
tp2169
Rp2170
I16
tp2171
a(I393
I617
g1
(g5
S'\r\x00'
p2172
tp2173
Rp2174
I16
tp2175
a(I393
I819
g1
(g5
S'\r\x00'
p2176
tp2177
Rp2178
I16
tp2179
a(I396
I605
g1
(g5
S'\x07\x00'
p2180
tp2181
Rp2182
I8
tp2183
a(I396
I831
g1
(g5
S'\x07\x00'
p2184
tp2185
Rp2186
I8
tp2187
a(I396
I839
g1
(g5
S'\x07\x00'
p2188
tp2189
Rp2190
I8
tp2191
a(I403
I472
g1
(g5
S'\x06\x00'
p2192
tp2193
Rp2194
I7
tp2195
a(I403
I480
g1
(g5
S'\x06\x00'
p2196
tp2197
Rp2198
I7
tp2199
a(I403
I605
g1
(g5
S'\x06\x00'
p2200
tp2201
Rp2202
I7
tp2203
a(I406
I617
g1
(g5
S'\x0c\x00'
p2204
tp2205
Rp2206
I15
tp2207
a(I409
I472
g1
(g5
S'\x06\x00'
p2208
tp2209
Rp2210
I7
tp2211
a(I409
I847
g1
(g5
S'\x06\x00'
p2212
tp2213
Rp2214
I7
tp2215
a(I409
I855
g1
(g5
S'\x06\x00'
p2216
tp2217
Rp2218
I7
tp2219
a(I409
I863
g1
(g5
S'\x06\x00'
p2220
tp2221
Rp2222
I7
tp2223
a(I409
I871
g1
(g5
S'\x06\x00'
p2224
tp2225
Rp2226
I7
tp2227
a(I409
I878
g1
(g5
S'\x06\x00'
p2228
tp2229
Rp2230
I7
tp2231
a(I409
I886
g1
(g5
S'\x06\x00'
p2232
tp2233
Rp2234
I7
tp2235
a(I409
I894
g1
(g5
S'\x06\x00'
p2236
tp2237
Rp2238
I7
tp2239
a(I409
I902
g1
(g5
S'\x06\x00'
p2240
tp2241
Rp2242
I7
tp2243
a(I409
I909
g1
(g5
S'\x06\x00'
p2244
tp2245
Rp2246
I7
tp2247
a(I409
I917
g1
(g5
S'\x06\x00'
p2248
tp2249
Rp2250
I7
tp2251
a(I409
I925
g1
(g5
S'\x06\x00'
p2252
tp2253
Rp2254
I7
tp2255
a(I409
I933
g1
(g5
S'\x06\x00'
p2256
tp2257
Rp2258
I7
tp2259
a(I409
I940
g1
(g5
S'\x06\x00'
p2260
tp2261
Rp2262
I7
tp2263
a(I409
I948
g1
(g5
S'\x06\x00'
p2264
tp2265
Rp2266
I7
tp2267
a(I409
I956
g1
(g5
S'\x06\x00'
p2268
tp2269
Rp2270
I7
tp2271
a(I409
I964
g1
(g5
S'\x06\x00'
p2272
tp2273
Rp2274
I7
tp2275
a(I409
I972
g1
(g5
S'\x06\x00'
p2276
tp2277
Rp2278
I7
tp2279
a(I409
I980
g1
(g5
S'\x06\x00'
p2280
tp2281
Rp2282
I7
tp2283
a(I409
I988
g1
(g5
S'\x06\x00'
p2284
tp2285
Rp2286
I7
tp2287
a(I409
I996
g1
(g5
S'\x06\x00'
p2288
tp2289
Rp2290
I7
tp2291
a(I412
I109
g1
(g5
S'\x19\x00'
p2292
tp2293
Rp2294
I31
tp2295
a(I412
I452
g1
(g5
S'\x19\x00'
p2296
tp2297
Rp2298
I31
tp2299
a(I412
I827
g1
(g5
S'\x19\x00'
p2300
tp2301
Rp2302
I31
tp2303
a(I415
I472
g1
(g5
S'\x06\x00'
p2304
tp2305
Rp2306
I7
tp2307
a(I418
I617
g1
(g5
S'\r\x00'
p2308
tp2309
Rp2310
I16
tp2311
a(I418
I851
g1
(g5
S'\r\x00'
p2312
tp2313
Rp2314
I16
tp2315
a(I418
I867
g1
(g5
S'\r\x00'
p2316
tp2317
Rp2318
I16
tp2319
a(I418
I882
g1
(g5
S'\r\x00'
p2320
tp2321
Rp2322
I16
tp2323
a(I418
I898
g1
(g5
S'\r\x00'
p2324
tp2325
Rp2326
I16
tp2327
a(I418
I913
g1
(g5
S'\r\x00'
p2328
tp2329
Rp2330
I16
tp2331
a(I418
I929
g1
(g5
S'\r\x00'
p2332
tp2333
Rp2334
I16
tp2335
a(I418
I944
g1
(g5
S'\r\x00'
p2336
tp2337
Rp2338
I16
tp2339
a(I418
I960
g1
(g5
S'\r\x00'
p2340
tp2341
Rp2342
I16
tp2343
a(I418
I976
g1
(g5
S'\r\x00'
p2344
tp2345
Rp2346
I16
tp2347
a(I418
I992
g1
(g5
S'\r\x00'
p2348
tp2349
Rp2350
I16
tp2351
a(I421
I3
g1
(g5
S'\x07\x00'
p2352
tp2353
Rp2354
I8
tp2355
a(I421
I11
g1
(g5
S'\x07\x00'
p2356
tp2357
Rp2358
I8
tp2359
a(I421
I19
g1
(g5
S'\x07\x00'
p2360
tp2361
Rp2362
I8
tp2363
a(I421
I27
g1
(g5
S'\x07\x00'
p2364
tp2365
Rp2366
I8
tp2367
a(I421
I34
g1
(g5
S'\x07\x00'
p2368
tp2369
Rp2370
I8
tp2371
a(I421
I42
g1
(g5
S'\x07\x00'
p2372
tp2373
Rp2374
I8
tp2375
a(I421
I50
g1
(g5
S'\x07\x00'
p2376
tp2377
Rp2378
I8
tp2379
a(I421
I58
g1
(g5
S'\x07\x00'
p2380
tp2381
Rp2382
I8
tp2383
a(I421
I65
g1
(g5
S'\x07\x00'
p2384
tp2385
Rp2386
I8
tp2387
a(I421
I73
g1
(g5
S'\x07\x00'
p2388
tp2389
Rp2390
I8
tp2391
a(I421
I81
g1
(g5
S'\x07\x00'
p2392
tp2393
Rp2394
I8
tp2395
a(I421
I89
g1
(g5
S'\x07\x00'
p2396
tp2397
Rp2398
I8
tp2399
a(I421
I472
g1
(g5
S'\x07\x00'
p2400
tp2401
Rp2402
I8
tp2403
a(I425
I156
g1
(g5
S'2\x00'
p2404
tp2405
Rp2406
I62
tp2407
a(I425
I218
g1
(g5
S'2\x00'
p2408
tp2409
Rp2410
I62
tp2411
a(I425
I281
g1
(g5
S'2\x00'
p2412
tp2413
Rp2414
I62
tp2415
a(I425
I343
g1
(g5
S'2\x00'
p2416
tp2417
Rp2418
I62
tp2419
a(I425
I406
g1
(g5
S'2\x00'
p2420
tp2421
Rp2422
I62
tp2423
a(I425
I781
g1
(g5
S'2\x00'
p2424
tp2425
Rp2426
I62
tp2427
a(I428
I472
g1
(g5
S'\x06\x00'
p2428
tp2429
Rp2430
I7
tp2431
a(I428
I621
g1
(g5
S'\x06\x00'
p2432
tp2433
Rp2434
I7
tp2435
a(I434
I472
g1
(g5
S'\x06\x00'
p2436
tp2437
Rp2438
I7
tp2439
a(I434
I621
g1
(g5
S'\x06\x00'
p2440
tp2441
Rp2442
I7
tp2443
a(I437
I15
g1
(g5
S'\x19\x00'
p2444
tp2445
Rp2446
I31
tp2447
a(I437
I46
g1
(g5
S'\x19\x00'
p2448
tp2449
Rp2450
I31
tp2451
a(I437
I77
g1
(g5
S'\x19\x00'
p2452
tp2453
Rp2454
I31
tp2455
a(I437
I109
g1
(g5
S'\x19\x00'
p2456
tp2457
Rp2458
I31
tp2459
a(I437
I452
g1
(g5
S'\x19\x00'
p2460
tp2461
Rp2462
I31
tp2463
a(I437
I827
g1
(g5
S'\x19\x00'
p2464
tp2465
Rp2466
I31
tp2467
a(I437
I859
g1
(g5
S'\x19\x00'
p2468
tp2469
Rp2470
I31
tp2471
a(I437
I890
g1
(g5
S'\x19\x00'
p2472
tp2473
Rp2474
I31
tp2475
a(I437
I921
g1
(g5
S'\x19\x00'
p2476
tp2477
Rp2478
I31
tp2479
a(I437
I952
g1
(g5
S'\x19\x00'
p2480
tp2481
Rp2482
I31
tp2483
a(I437
I984
g1
(g5
S'\x19\x00'
p2484
tp2485
Rp2486
I31
tp2487
a(I440
I472
g1
(g5
S'\x06\x00'
p2488
tp2489
Rp2490
I7
tp2491
a(I440
I621
g1
(g5
S'\x06\x00'
p2492
tp2493
Rp2494
I7
tp2495
a(I446
I472
g1
(g5
S'\x07\x00'
p2496
tp2497
Rp2498
I8
tp2499
a(I446
I621
g1
(g5
S'\x07\x00'
p2500
tp2501
Rp2502
I8
tp2503
a(I450
I687
g1
(g5
S'd\x00'
p2504
tp2505
Rp2506
I125
tp2507
a(I453
I472
g1
(g5
S'\x06\x00'
p2508
tp2509
Rp2510
I7
tp2511
a(I453
I621
g1
(g5
S'\x06\x00'
p2512
tp2513
Rp2514
I7
tp2515
a(I459
I472
g1
(g5
S'\x06\x00'
p2516
tp2517
Rp2518
I7
tp2519
a(I459
I621
g1
(g5
S'\x06\x00'
p2520
tp2521
Rp2522
I7
tp2523
a(I462
I140
g1
(g5
S'\x19\x00'
p2524
tp2525
Rp2526
I31
tp2527
a(I462
I171
g1
(g5
S'\x19\x00'
p2528
tp2529
Rp2530
I31
tp2531
a(I462
I265
g1
(g5
S'\x19\x00'
p2532
tp2533
Rp2534
I31
tp2535
a(I462
I296
g1
(g5
S'\x19\x00'
p2536
tp2537
Rp2538
I31
tp2539
a(I462
I452
g1
(g5
S'\x19\x00'
p2540
tp2541
Rp2542
I31
tp2543
a(I462
I827
g1
(g5
S'\x19\x00'
p2544
tp2545
Rp2546
I31
tp2547
a(I462
I859
g1
(g5
S'\x19\x00'
p2548
tp2549
Rp2550
I31
tp2551
a(I465
I472
g1
(g5
S'\x06\x00'
p2552
tp2553
Rp2554
I7
tp2555
a(I468
I617
g1
(g5
S'\r\x00'
p2556
tp2557
Rp2558
I16
tp2559
a(I471
I472
g1
(g5
S'\x07\x00'
p2560
tp2561
Rp2562
I8
tp2563
a(I475
I31
g1
(g5
S'2\x00'
p2564
tp2565
Rp2566
I62
tp2567
a(I475
I93
g1
(g5
S'2\x00'
p2568
tp2569
Rp2570
I62
tp2571
a(I475
I218
g1
(g5
S'2\x00'
p2572
tp2573
Rp2574
I62
tp2575
a(I475
I343
g1
(g5
S'2\x00'
p2576
tp2577
Rp2578
I62
tp2579
a(I475
I406
g1
(g5
S'2\x00'
p2580
tp2581
Rp2582
I62
tp2583
a(I475
I781
g1
(g5
S'2\x00'
p2584
tp2585
Rp2586
I62
tp2587
a(I475
I906
g1
(g5
S'2\x00'
p2588
tp2589
Rp2590
I62
tp2591
a(I475
I968
g1
(g5
S'2\x00'
p2592
tp2593
Rp2594
I62
tp2595
a(I481
I163
g1
(g5
S'\x0c\x00'
p2596
tp2597
Rp2598
I15
tp2599
a(I481
I179
g1
(g5
S'\x0c\x00'
p2600
tp2601
Rp2602
I15
tp2603
a(I481
I257
g1
(g5
S'\x0c\x00'
p2604
tp2605
Rp2606
I15
tp2607
a(I481
I273
g1
(g5
S'\x0c\x00'
p2608
tp2609
Rp2610
I15
tp2611
a(I481
I476
g1
(g5
S'\x0c\x00'
p2612
tp2613
Rp2614
I15
tp2615
a(I481
I617
g1
(g5
S'\x0c\x00'
p2616
tp2617
Rp2618
I15
tp2619
a(I481
I819
g1
(g5
S'\x0c\x00'
p2620
tp2621
Rp2622
I15
tp2623
a(I481
I835
g1
(g5
S'\x0c\x00'
p2624
tp2625
Rp2626
I15
tp2627
a(I484
I605
g1
(g5
S'\x06\x00'
p2628
tp2629
Rp2630
I7
tp2631
a(I487
I140
g1
(g5
S'\x19\x00'
p2632
tp2633
Rp2634
I31
tp2635
a(I487
I296
g1
(g5
S'\x19\x00'
p2636
tp2637
Rp2638
I31
tp2639
a(I487
I452
g1
(g5
S'\x19\x00'
p2640
tp2641
Rp2642
I31
tp2643
a(I487
I859
g1
(g5
S'\x19\x00'
p2644
tp2645
Rp2646
I31
tp2647
a(I490
I253
g1
(g5
S'\x06\x00'
p2648
tp2649
Rp2650
I7
tp2651
a(I490
I488
g1
(g5
S'\x06\x00'
p2652
tp2653
Rp2654
I7
tp2655
a(I490
I605
g1
(g5
S'\x06\x00'
p2656
tp2657
Rp2658
I7
tp2659
a(I490
I831
g1
(g5
S'\x06\x00'
p2660
tp2661
Rp2662
I7
tp2663
a(I490
I839
g1
(g5
S'\x06\x00'
p2664
tp2665
Rp2666
I7
tp2667
a(I493
I476
g1
(g5
S'\r\x00'
p2668
tp2669
Rp2670
I16
tp2671
a(I493
I617
g1
(g5
S'\r\x00'
p2672
tp2673
Rp2674
I16
tp2675
a(I493
I819
g1
(g5
S'\r\x00'
p2676
tp2677
Rp2678
I16
tp2679
a(I496
I253
g1
(g5
S'\x07\x00'
p2680
tp2681
Rp2682
I8
tp2683
a(I496
I488
g1
(g5
S'\x07\x00'
p2684
tp2685
Rp2686
I8
tp2687
a(I496
I597
g1
(g5
S'\x07\x00'
p2688
tp2689
Rp2690
I8
tp2691
a(I496
I605
g1
(g5
S'\x07\x00'
p2692
tp2693
Rp2694
I8
tp2695
a(I503
I253
g1
(g5
S'\x06\x00'
p2696
tp2697
Rp2698
I7
tp2699
a(I503
I503
g1
(g5
S'\x06\x00'
p2700
tp2701
Rp2702
I7
tp2703
a(I503
I589
g1
(g5
S'\x06\x00'
p2704
tp2705
Rp2706
I7
tp2707
a(I503
I800
g1
(g5
S'\x06\x00'
p2708
tp2709
Rp2710
I7
tp2711
a(I503
I855
g1
(g5
S'\x06\x00'
p2712
tp2713
Rp2714
I7
tp2715
a(I506
I69
g1
(g5
S'\x0c\x00'
p2716
tp2717
Rp2718
I15
tp2719
a(I506
I85
g1
(g5
S'\x0c\x00'
p2720
tp2721
Rp2722
I15
tp2723
a(I506
I101
g1
(g5
S'\x0c\x00'
p2724
tp2725
Rp2726
I15
tp2727
a(I506
I117
g1
(g5
S'\x0c\x00'
p2728
tp2729
Rp2730
I15
tp2731
a(I506
I132
g1
(g5
S'\x0c\x00'
p2732
tp2733
Rp2734
I15
tp2735
a(I506
I148
g1
(g5
S'\x0c\x00'
p2736
tp2737
Rp2738
I15
tp2739
a(I506
I788
g1
(g5
S'\x0c\x00'
p2740
tp2741
Rp2742
I15
tp2743
a(I506
I867
g1
(g5
S'\x0c\x00'
p2744
tp2745
Rp2746
I15
tp2747
a(I509
I253
g1
(g5
S'\x06\x00'
p2748
tp2749
Rp2750
I7
tp2751
a(I509
I503
g1
(g5
S'\x06\x00'
p2752
tp2753
Rp2754
I7
tp2755
a(I509
I511
g1
(g5
S'\x06\x00'
p2756
tp2757
Rp2758
I7
tp2759
a(I509
I573
g1
(g5
S'\x06\x00'
p2760
tp2761
Rp2762
I7
tp2763
a(I509
I581
g1
(g5
S'\x06\x00'
p2764
tp2765
Rp2766
I7
tp2767
a(I509
I589
g1
(g5
S'\x06\x00'
p2768
tp2769
Rp2770
I7
tp2771
a(I509
I800
g1
(g5
S'\x06\x00'
p2772
tp2773
Rp2774
I7
tp2775
a(I509
I855
g1
(g5
S'\x06\x00'
p2776
tp2777
Rp2778
I7
tp2779
a(I512
I296
g1
(g5
S'\x19\x00'
p2780
tp2781
Rp2782
I31
tp2783
a(I512
I609
g1
(g5
S'\x19\x00'
p2784
tp2785
Rp2786
I31
tp2787
a(I512
I640
g1
(g5
S'\x19\x00'
p2788
tp2789
Rp2790
I31
tp2791
a(I512
I671
g1
(g5
S'\x19\x00'
p2792
tp2793
Rp2794
I31
tp2795
a(I512
I765
g1
(g5
S'\x19\x00'
p2796
tp2797
Rp2798
I31
tp2799
a(I515
I81
g1
(g5
S'\x06\x00'
p2800
tp2801
Rp2802
I7
tp2803
a(I515
I89
g1
(g5
S'\x06\x00'
p2804
tp2805
Rp2806
I7
tp2807
a(I515
I97
g1
(g5
S'\x06\x00'
p2808
tp2809
Rp2810
I7
tp2811
a(I515
I105
g1
(g5
S'\x06\x00'
p2812
tp2813
Rp2814
I7
tp2815
a(I515
I113
g1
(g5
S'\x06\x00'
p2816
tp2817
Rp2818
I7
tp2819
a(I515
I121
g1
(g5
S'\x06\x00'
p2820
tp2821
Rp2822
I7
tp2823
a(I515
I128
g1
(g5
S'\x06\x00'
p2824
tp2825
Rp2826
I7
tp2827
a(I515
I136
g1
(g5
S'\x06\x00'
p2828
tp2829
Rp2830
I7
tp2831
a(I515
I144
g1
(g5
S'\x06\x00'
p2832
tp2833
Rp2834
I7
tp2835
a(I515
I152
g1
(g5
S'\x06\x00'
p2836
tp2837
Rp2838
I7
tp2839
a(I515
I253
g1
(g5
S'\x06\x00'
p2840
tp2841
Rp2842
I7
tp2843
a(I515
I800
g1
(g5
S'\x06\x00'
p2844
tp2845
Rp2846
I7
tp2847
a(I518
I69
g1
(g5
S'\r\x00'
p2848
tp2849
Rp2850
I16
tp2851
a(I518
I507
g1
(g5
S'\r\x00'
p2852
tp2853
Rp2854
I16
tp2855
a(I518
I523
g1
(g5
S'\r\x00'
p2856
tp2857
Rp2858
I16
tp2859
a(I518
I538
g1
(g5
S'\r\x00'
p2860
tp2861
Rp2862
I16
tp2863
a(I518
I554
g1
(g5
S'\r\x00'
p2864
tp2865
Rp2866
I16
tp2867
a(I518
I569
g1
(g5
S'\r\x00'
p2868
tp2869
Rp2870
I16
tp2871
a(I518
I585
g1
(g5
S'\r\x00'
p2872
tp2873
Rp2874
I16
tp2875
a(I518
I788
g1
(g5
S'\r\x00'
p2876
tp2877
Rp2878
I16
tp2879
a(I518
I867
g1
(g5
S'\r\x00'
p2880
tp2881
Rp2882
I16
tp2883
a(I521
I253
g1
(g5
S'\x07\x00'
p2884
tp2885
Rp2886
I8
tp2887
a(I521
I800
g1
(g5
S'\x07\x00'
p2888
tp2889
Rp2890
I8
tp2891
a(I525
I31
g1
(g5
S'2\x00'
p2892
tp2893
Rp2894
I62
tp2895
a(I525
I218
g1
(g5
S'2\x00'
p2896
tp2897
Rp2898
I62
tp2899
a(I525
I343
g1
(g5
S'2\x00'
p2900
tp2901
Rp2902
I62
tp2903
a(I525
I406
g1
(g5
S'2\x00'
p2904
tp2905
Rp2906
I62
tp2907
a(I525
I468
g1
(g5
S'2\x00'
p2908
tp2909
Rp2910
I62
tp2911
a(I525
I718
g1
(g5
S'2\x00'
p2912
tp2913
Rp2914
I62
tp2915
a(I528
I253
g1
(g5
S'\x06\x00'
p2916
tp2917
Rp2918
I7
tp2919
a(I528
I659
g1
(g5
S'\x06\x00'
p2920
tp2921
Rp2922
I7
tp2923
a(I528
I675
g1
(g5
S'\x06\x00'
p2924
tp2925
Rp2926
I7
tp2927
a(I528
I683
g1
(g5
S'\x06\x00'
p2928
tp2929
Rp2930
I7
tp2931
a(I528
I800
g1
(g5
S'\x06\x00'
p2932
tp2933
Rp2934
I7
tp2935
a(I531
I69
g1
(g5
S'\x0c\x00'
p2936
tp2937
Rp2938
I15
tp2939
a(I531
I632
g1
(g5
S'\x0c\x00'
p2940
tp2941
Rp2942
I15
tp2943
a(I531
I648
g1
(g5
S'\x0c\x00'
p2944
tp2945
Rp2946
I15
tp2947
a(I531
I788
g1
(g5
S'\x0c\x00'
p2948
tp2949
Rp2950
I15
tp2951
a(I531
I867
g1
(g5
S'\x0c\x00'
p2952
tp2953
Rp2954
I15
tp2955
a(I534
I253
g1
(g5
S'\x06\x00'
p2956
tp2957
Rp2958
I7
tp2959
a(I534
I683
g1
(g5
S'\x06\x00'
p2960
tp2961
Rp2962
I7
tp2963
a(I534
I800
g1
(g5
S'\x06\x00'
p2964
tp2965
Rp2966
I7
tp2967
a(I534
I855
g1
(g5
S'\x06\x00'
p2968
tp2969
Rp2970
I7
tp2971
a(I537
I296
g1
(g5
S'\x19\x00'
p2972
tp2973
Rp2974
I31
tp2975
a(I537
I515
g1
(g5
S'\x19\x00'
p2976
tp2977
Rp2978
I31
tp2979
a(I537
I546
g1
(g5
S'\x19\x00'
p2980
tp2981
Rp2982
I31
tp2983
a(I537
I577
g1
(g5
S'\x19\x00'
p2984
tp2985
Rp2986
I31
tp2987
a(I537
I609
g1
(g5
S'\x19\x00'
p2988
tp2989
Rp2990
I31
tp2991
a(I537
I765
g1
(g5
S'\x19\x00'
p2992
tp2993
Rp2994
I31
tp2995
a(I540
I253
g1
(g5
S'\x06\x00'
p2996
tp2997
Rp2998
I7
tp2999
a(I540
I628
g1
(g5
S'\x06\x00'
p3000
tp3001
Rp3002
I7
tp3003
a(I540
I636
g1
(g5
S'\x06\x00'
p3004
tp3005
Rp3006
I7
tp3007
a(I540
I683
g1
(g5
S'\x06\x00'
p3008
tp3009
Rp3010
I7
tp3011
a(I540
I815
g1
(g5
S'\x06\x00'
p3012
tp3013
Rp3014
I7
tp3015
a(I543
I69
g1
(g5
S'\r\x00'
p3016
tp3017
Rp3018
I16
tp3019
a(I543
I788
g1
(g5
S'\r\x00'
p3020
tp3021
Rp3022
I16
tp3023
a(I543
I804
g1
(g5
S'\r\x00'
p3024
tp3025
Rp3026
I16
tp3027
a(I543
I851
g1
(g5
S'\r\x00'
p3028
tp3029
Rp3030
I16
tp3031
a(I543
I867
g1
(g5
S'\r\x00'
p3032
tp3033
Rp3034
I16
tp3035
a(I546
I253
g1
(g5
S'\x07\x00'
p3036
tp3037
Rp3038
I8
tp3039
a(I546
I628
g1
(g5
S'\x07\x00'
p3040
tp3041
Rp3042
I8
tp3043
a(I546
I815
g1
(g5
S'\x07\x00'
p3044
tp3045
Rp3046
I8
tp3047
a(I546
I823
g1
(g5
S'\x07\x00'
p3048
tp3049
Rp3050
I8
tp3051
a(I546
I831
g1
(g5
S'\x07\x00'
p3052
tp3053
Rp3054
I8
tp3055
a(I550
I937
g1
(g5
S'd\x00'
p3056
tp3057
Rp3058
I125
tp3059
a(I553
I613
g1
(g5
S'\x06\x00'
p3060
tp3061
Rp3062
I7
tp3063
a(I553
I621
g1
(g5
S'\x06\x00'
p3064
tp3065
Rp3066
I7
tp3067
a(I553
I683
g1
(g5
S'\x06\x00'
p3068
tp3069
Rp3070
I7
tp3071
a(I556
I69
g1
(g5
S'\x0c\x00'
p3072
tp3073
Rp3074
I15
tp3075
a(I556
I569
g1
(g5
S'\x0c\x00'
p3076
tp3077
Rp3078
I15
tp3079
a(I556
I585
g1
(g5
S'\x0c\x00'
p3080
tp3081
Rp3082
I15
tp3083
a(I556
I601
g1
(g5
S'\x0c\x00'
p3084
tp3085
Rp3086
I15
tp3087
a(I559
I667
g1
(g5
S'\x06\x00'
p3088
tp3089
Rp3090
I7
tp3091
a(I559
I675
g1
(g5
S'\x06\x00'
p3092
tp3093
Rp3094
I7
tp3095
a(I559
I683
g1
(g5
S'\x06\x00'
p3096
tp3097
Rp3098
I7
tp3099
a(I562
I296
g1
(g5
S'\x19\x00'
p3100
tp3101
Rp3102
I31
tp3103
a(I562
I484
g1
(g5
S'\x19\x00'
p3104
tp3105
Rp3106
I31
tp3107
a(I562
I515
g1
(g5
S'\x19\x00'
p3108
tp3109
Rp3110
I31
tp3111
a(I562
I546
g1
(g5
S'\x19\x00'
p3112
tp3113
Rp3114
I31
tp3115
a(I565
I581
g1
(g5
S'\x06\x00'
p3116
tp3117
Rp3118
I7
tp3119
a(I565
I589
g1
(g5
S'\x06\x00'
p3120
tp3121
Rp3122
I7
tp3123
a(I565
I597
g1
(g5
S'\x06\x00'
p3124
tp3125
Rp3126
I7
tp3127
a(I568
I69
g1
(g5
S'\r\x00'
p3128
tp3129
Rp3130
I16
tp3131
a(I568
I569
g1
(g5
S'\r\x00'
p3132
tp3133
Rp3134
I16
tp3135
a(I568
I663
g1
(g5
S'\r\x00'
p3136
tp3137
Rp3138
I16
tp3139
a(I568
I679
g1
(g5
S'\r\x00'
p3140
tp3141
Rp3142
I16
tp3143
a(I571
I190
g1
(g5
S'\x07\x00'
p3144
tp3145
Rp3146
I8
tp3147
a(I571
I198
g1
(g5
S'\x07\x00'
p3148
tp3149
Rp3150
I8
tp3151
a(I571
I206
g1
(g5
S'\x07\x00'
p3152
tp3153
Rp3154
I8
tp3155
a(I571
I214
g1
(g5
S'\x07\x00'
p3156
tp3157
Rp3158
I8
tp3159
a(I571
I222
g1
(g5
S'\x07\x00'
p3160
tp3161
Rp3162
I8
tp3163
a(I571
I230
g1
(g5
S'\x07\x00'
p3164
tp3165
Rp3166
I8
tp3167
a(I571
I238
g1
(g5
S'\x07\x00'
p3168
tp3169
Rp3170
I8
tp3171
a(I571
I246
g1
(g5
S'\x07\x00'
p3172
tp3173
Rp3174
I8
tp3175
a(I571
I253
g1
(g5
S'\x07\x00'
p3176
tp3177
Rp3178
I8
tp3179
a(I571
I581
g1
(g5
S'\x07\x00'
p3180
tp3181
Rp3182
I8
tp3183
a(I571
I652
g1
(g5
S'\x07\x00'
p3184
tp3185
Rp3186
I8
tp3187
a(I575
I31
g1
(g5
S'2\x00'
p3188
tp3189
Rp3190
I62
tp3191
a(I575
I343
g1
(g5
S'2\x00'
p3192
tp3193
Rp3194
I62
tp3195
a(I575
I718
g1
(g5
S'2\x00'
p3196
tp3197
Rp3198
I62
tp3199
a(I575
I781
g1
(g5
S'2\x00'
p3200
tp3201
Rp3202
I62
tp3203
a(I575
I843
g1
(g5
S'2\x00'
p3204
tp3205
Rp3206
I62
tp3207
a(I578
I253
g1
(g5
S'\x06\x00'
p3208
tp3209
Rp3210
I7
tp3211
a(I578
I565
g1
(g5
S'\x06\x00'
p3212
tp3213
Rp3214
I7
tp3215
a(I578
I573
g1
(g5
S'\x06\x00'
p3216
tp3217
Rp3218
I7
tp3219
a(I578
I636
g1
(g5
S'\x06\x00'
p3220
tp3221
Rp3222
I7
tp3223
a(I581
I69
g1
(g5
S'\x0c\x00'
p3224
tp3225
Rp3226
I15
tp3227
a(I581
I538
g1
(g5
S'\x0c\x00'
p3228
tp3229
Rp3230
I15
tp3231
a(I581
I554
g1
(g5
S'\x0c\x00'
p3232
tp3233
Rp3234
I15
tp3235
a(I581
I648
g1
(g5
S'\x0c\x00'
p3236
tp3237
Rp3238
I15
tp3239
a(I584
I253
g1
(g5
S'\x06\x00'
p3240
tp3241
Rp3242
I7
tp3243
a(I584
I565
g1
(g5
S'\x06\x00'
p3244
tp3245
Rp3246
I7
tp3247
a(I584
I636
g1
(g5
S'\x06\x00'
p3248
tp3249
Rp3250
I7
tp3251
a(I587
I202
g1
(g5
S'\x19\x00'
p3252
tp3253
Rp3254
I31
tp3255
a(I587
I234
g1
(g5
S'\x19\x00'
p3256
tp3257
Rp3258
I31
tp3259
a(I587
I296
g1
(g5
S'\x19\x00'
p3260
tp3261
Rp3262
I31
tp3263
a(I587
I484
g1
(g5
S'\x19\x00'
p3264
tp3265
Rp3266
I31
tp3267
a(I587
I515
g1
(g5
S'\x19\x00'
p3268
tp3269
Rp3270
I31
tp3271
a(I587
I671
g1
(g5
S'\x19\x00'
p3272
tp3273
Rp3274
I31
tp3275
a(I590
I253
g1
(g5
S'\x06\x00'
p3276
tp3277
Rp3278
I7
tp3279
a(I590
I550
g1
(g5
S'\x06\x00'
p3280
tp3281
Rp3282
I7
tp3283
a(I590
I636
g1
(g5
S'\x06\x00'
p3284
tp3285
Rp3286
I7
tp3287
a(I593
I69
g1
(g5
S'\r\x00'
p3288
tp3289
Rp3290
I16
tp3291
a(I593
I538
g1
(g5
S'\r\x00'
p3292
tp3293
Rp3294
I16
tp3295
a(I593
I648
g1
(g5
S'\r\x00'
p3296
tp3297
Rp3298
I16
tp3299
a(I596
I253
g1
(g5
S'\x07\x00'
p3300
tp3301
Rp3302
I8
tp3303
a(I596
I605
g1
(g5
S'\x07\x00'
p3304
tp3305
Rp3306
I8
tp3307
a(I603
I253
g1
(g5
S'\x06\x00'
p3308
tp3309
Rp3310
I7
tp3311
a(I603
I534
g1
(g5
S'\x06\x00'
p3312
tp3313
Rp3314
I7
tp3315
a(I603
I613
g1
(g5
S'\x06\x00'
p3316
tp3317
Rp3318
I7
tp3319
a(I603
I644
g1
(g5
S'\x06\x00'
p3320
tp3321
Rp3322
I7
tp3323
a(I603
I652
g1
(g5
S'\x06\x00'
p3324
tp3325
Rp3326
I7
tp3327
a(I606
I69
g1
(g5
S'\x0c\x00'
p3328
tp3329
Rp3330
I15
tp3331
a(I606
I601
g1
(g5
S'\x0c\x00'
p3332
tp3333
Rp3334
I15
tp3335
a(I606
I694
g1
(g5
S'\x0c\x00'
p3336
tp3337
Rp3338
I15
tp3339
a(I606
I710
g1
(g5
S'\x0c\x00'
p3340
tp3341
Rp3342
I15
tp3343
a(I606
I726
g1
(g5
S'\x0c\x00'
p3344
tp3345
Rp3346
I15
tp3347
a(I606
I742
g1
(g5
S'\x0c\x00'
p3348
tp3349
Rp3350
I15
tp3351
a(I609
I81
g1
(g5
S'\x06\x00'
p3352
tp3353
Rp3354
I7
tp3355
a(I609
I89
g1
(g5
S'\x06\x00'
p3356
tp3357
Rp3358
I7
tp3359
a(I609
I97
g1
(g5
S'\x06\x00'
p3360
tp3361
Rp3362
I7
tp3363
a(I609
I105
g1
(g5
S'\x06\x00'
p3364
tp3365
Rp3366
I7
tp3367
a(I609
I113
g1
(g5
S'\x06\x00'
p3368
tp3369
Rp3370
I7
tp3371
a(I609
I121
g1
(g5
S'\x06\x00'
p3372
tp3373
Rp3374
I7
tp3375
a(I609
I128
g1
(g5
S'\x06\x00'
p3376
tp3377
Rp3378
I7
tp3379
a(I609
I136
g1
(g5
S'\x06\x00'
p3380
tp3381
Rp3382
I7
tp3383
a(I609
I144
g1
(g5
S'\x06\x00'
p3384
tp3385
Rp3386
I7
tp3387
a(I609
I152
g1
(g5
S'\x06\x00'
p3388
tp3389
Rp3390
I7
tp3391
a(I609
I253
g1
(g5
S'\x06\x00'
p3392
tp3393
Rp3394
I7
tp3395
a(I609
I534
g1
(g5
S'\x06\x00'
p3396
tp3397
Rp3398
I7
tp3399
a(I609
I581
g1
(g5
S'\x06\x00'
p3400
tp3401
Rp3402
I7
tp3403
a(I609
I589
g1
(g5
S'\x06\x00'
p3404
tp3405
Rp3406
I7
tp3407
a(I609
I613
g1
(g5
S'\x06\x00'
p3408
tp3409
Rp3410
I7
tp3411
a(I609
I652
g1
(g5
S'\x06\x00'
p3412
tp3413
Rp3414
I7
tp3415
a(I612
I296
g1
(g5
S'\x19\x00'
p3416
tp3417
Rp3418
I31
tp3419
a(I612
I484
g1
(g5
S'\x19\x00'
p3420
tp3421
Rp3422
I31
tp3423
a(I612
I515
g1
(g5
S'\x19\x00'
p3424
tp3425
Rp3426
I31
tp3427
a(I612
I671
g1
(g5
S'\x19\x00'
p3428
tp3429
Rp3430
I31
tp3431
a(I615
I253
g1
(g5
S'\x06\x00'
p3432
tp3433
Rp3434
I7
tp3435
a(I615
I534
g1
(g5
S'\x06\x00'
p3436
tp3437
Rp3438
I7
tp3439
a(I615
I573
g1
(g5
S'\x06\x00'
p3440
tp3441
Rp3442
I7
tp3443
a(I615
I652
g1
(g5
S'\x06\x00'
p3444
tp3445
Rp3446
I7
tp3447
a(I615
I706
g1
(g5
S'\x06\x00'
p3448
tp3449
Rp3450
I7
tp3451
a(I615
I730
g1
(g5
S'\x06\x00'
p3452
tp3453
Rp3454
I7
tp3455
a(I618
I69
g1
(g5
S'\r\x00'
p3456
tp3457
Rp3458
I16
tp3459
a(I618
I85
g1
(g5
S'\r\x00'
p3460
tp3461
Rp3462
I16
tp3463
a(I618
I101
g1
(g5
S'\r\x00'
p3464
tp3465
Rp3466
I16
tp3467
a(I618
I117
g1
(g5
S'\r\x00'
p3468
tp3469
Rp3470
I16
tp3471
a(I618
I132
g1
(g5
S'\r\x00'
p3472
tp3473
Rp3474
I16
tp3475
a(I618
I148
g1
(g5
S'\r\x00'
p3476
tp3477
Rp3478
I16
tp3479
a(I618
I585
g1
(g5
S'\r\x00'
p3480
tp3481
Rp3482
I16
tp3483
a(I618
I601
g1
(g5
S'\r\x00'
p3484
tp3485
Rp3486
I16
tp3487
a(I618
I617
g1
(g5
S'\r\x00'
p3488
tp3489
Rp3490
I16
tp3491
a(I618
I694
g1
(g5
S'\r\x00'
p3492
tp3493
Rp3494
I16
tp3495
a(I618
I742
g1
(g5
S'\r\x00'
p3496
tp3497
Rp3498
I16
tp3499
a(I621
I253
g1
(g5
S'\x07\x00'
p3500
tp3501
Rp3502
I8
tp3503
a(I621
I534
g1
(g5
S'\x07\x00'
p3504
tp3505
Rp3506
I8
tp3507
a(I621
I542
g1
(g5
S'\x07\x00'
p3508
tp3509
Rp3510
I8
tp3511
a(I621
I565
g1
(g5
S'\x07\x00'
p3512
tp3513
Rp3514
I8
tp3515
a(I621
I573
g1
(g5
S'\x07\x00'
p3516
tp3517
Rp3518
I8
tp3519
a(I621
I730
g1
(g5
S'\x07\x00'
p3520
tp3521
Rp3522
I8
tp3523
a(I625
I31
g1
(g5
S'2\x00'
p3524
tp3525
Rp3526
I62
tp3527
a(I625
I218
g1
(g5
S'2\x00'
p3528
tp3529
Rp3530
I62
tp3531
a(I625
I343
g1
(g5
S'2\x00'
p3532
tp3533
Rp3534
I62
tp3535
a(I628
I253
g1
(g5
S'\x06\x00'
p3536
tp3537
Rp3538
I7
tp3539
a(I628
I628
g1
(g5
S'\x06\x00'
p3540
tp3541
Rp3542
I7
tp3543
a(I628
I659
g1
(g5
S'\x06\x00'
p3544
tp3545
Rp3546
I7
tp3547
a(I628
I667
g1
(g5
S'\x06\x00'
p3548
tp3549
Rp3550
I7
tp3551
a(I628
I675
g1
(g5
S'\x06\x00'
p3552
tp3553
Rp3554
I7
tp3555
a(I628
I683
g1
(g5
S'\x06\x00'
p3556
tp3557
Rp3558
I7
tp3559
a(I631
I742
g1
(g5
S'\x0c\x00'
p3560
tp3561
Rp3562
I15
tp3563
a(I634
I253
g1
(g5
S'\x06\x00'
p3564
tp3565
Rp3566
I7
tp3567
a(I634
I628
g1
(g5
S'\x06\x00'
p3568
tp3569
Rp3570
I7
tp3571
a(I634
I667
g1
(g5
S'\x06\x00'
p3572
tp3573
Rp3574
I7
tp3575
a(I634
I675
g1
(g5
S'\x06\x00'
p3576
tp3577
Rp3578
I7
tp3579
a(I637
I77
g1
(g5
S'\x19\x00'
p3580
tp3581
Rp3582
I31
tp3583
a(I637
I109
g1
(g5
S'\x19\x00'
p3584
tp3585
Rp3586
I31
tp3587
a(I637
I140
g1
(g5
S'\x19\x00'
p3588
tp3589
Rp3590
I31
tp3591
a(I637
I296
g1
(g5
S'\x19\x00'
p3592
tp3593
Rp3594
I31
tp3595
a(I637
I484
g1
(g5
S'\x19\x00'
p3596
tp3597
Rp3598
I31
tp3599
a(I637
I515
g1
(g5
S'\x19\x00'
p3600
tp3601
Rp3602
I31
tp3603
a(I637
I546
g1
(g5
S'\x19\x00'
p3604
tp3605
Rp3606
I31
tp3607
a(I637
I577
g1
(g5
S'\x19\x00'
p3608
tp3609
Rp3610
I31
tp3611
a(I637
I609
g1
(g5
S'\x19\x00'
p3612
tp3613
Rp3614
I31
tp3615
a(I640
I628
g1
(g5
S'\x06\x00'
p3616
tp3617
Rp3618
I7
tp3619
a(I640
I667
g1
(g5
S'\x06\x00'
p3620
tp3621
Rp3622
I7
tp3623
a(I640
I730
g1
(g5
S'\x06\x00'
p3624
tp3625
Rp3626
I7
tp3627
a(I643
I163
g1
(g5
S'\r\x00'
p3628
tp3629
Rp3630
I16
tp3631
a(I643
I179
g1
(g5
S'\r\x00'
p3632
tp3633
Rp3634
I16
tp3635
a(I643
I257
g1
(g5
S'\r\x00'
p3636
tp3637
Rp3638
I16
tp3639
a(I643
I273
g1
(g5
S'\r\x00'
p3640
tp3641
Rp3642
I16
tp3643
a(I643
I742
g1
(g5
S'\r\x00'
p3644
tp3645
Rp3646
I16
tp3647
a(I646
I628
g1
(g5
S'\x07\x00'
p3648
tp3649
Rp3650
I8
tp3651
a(I646
I636
g1
(g5
S'\x07\x00'
p3652
tp3653
Rp3654
I8
tp3655
a(I646
I714
g1
(g5
S'\x07\x00'
p3656
tp3657
Rp3658
I8
tp3659
a(I646
I722
g1
(g5
S'\x07\x00'
p3660
tp3661
Rp3662
I8
tp3663
a(I646
I730
g1
(g5
S'\x07\x00'
p3664
tp3665
Rp3666
I8
tp3667
a(I653
I628
g1
(g5
S'\x06\x00'
p3668
tp3669
Rp3670
I7
tp3671
a(I653
I636
g1
(g5
S'\x06\x00'
p3672
tp3673
Rp3674
I7
tp3675
a(I656
I601
g1
(g5
S'\x0c\x00'
p3676
tp3677
Rp3678
I15
tp3679
a(I656
I617
g1
(g5
S'\x0c\x00'
p3680
tp3681
Rp3682
I15
tp3683
a(I656
I710
g1
(g5
S'\x0c\x00'
p3684
tp3685
Rp3686
I15
tp3687
a(I659
I628
g1
(g5
S'\x06\x00'
p3688
tp3689
Rp3690
I7
tp3691
a(I659
I690
g1
(g5
S'\x06\x00'
p3692
tp3693
Rp3694
I7
tp3695
a(I659
I698
g1
(g5
S'\x06\x00'
p3696
tp3697
Rp3698
I7
tp3699
a(I662
I484
g1
(g5
S'\x19\x00'
p3700
tp3701
Rp3702
I31
tp3703
a(I662
I577
g1
(g5
S'\x19\x00'
p3704
tp3705
Rp3706
I31
tp3707
a(I662
I734
g1
(g5
S'\x19\x00'
p3708
tp3709
Rp3710
I31
tp3711
a(I665
I613
g1
(g5
S'\x06\x00'
p3712
tp3713
Rp3714
I7
tp3715
a(I665
I621
g1
(g5
S'\x06\x00'
p3716
tp3717
Rp3718
I7
tp3719
a(I665
I683
g1
(g5
S'\x06\x00'
p3720
tp3721
Rp3722
I7
tp3723
a(I668
I601
g1
(g5
S'\r\x00'
p3724
tp3725
Rp3726
I16
tp3727
a(I668
I694
g1
(g5
S'\r\x00'
p3728
tp3729
Rp3730
I16
tp3731
a(I668
I710
g1
(g5
S'\r\x00'
p3732
tp3733
Rp3734
I16
tp3735
a(I671
I613
g1
(g5
S'\x07\x00'
p3736
tp3737
Rp3738
I8
tp3739
a(I671
I675
g1
(g5
S'\x07\x00'
p3740
tp3741
Rp3742
I8
tp3743
a(I671
I683
g1
(g5
S'\x07\x00'
p3744
tp3745
Rp3746
I8
tp3747
a(I675
I31
g1
(g5
S'2\x00'
p3748
tp3749
Rp3750
I62
tp3751
a(I675
I93
g1
(g5
S'2\x00'
p3752
tp3753
Rp3754
I62
tp3755
a(I675
I156
g1
(g5
S'2\x00'
p3756
tp3757
Rp3758
I62
tp3759
a(I675
I218
g1
(g5
S'2\x00'
p3760
tp3761
Rp3762
I62
tp3763
a(I675
I281
g1
(g5
S'2\x00'
p3764
tp3765
Rp3766
I62
tp3767
a(I675
I343
g1
(g5
S'2\x00'
p3768
tp3769
Rp3770
I62
tp3771
a(I675
I531
g1
(g5
S'2\x00'
p3772
tp3773
Rp3774
I62
tp3775
a(I678
I597
g1
(g5
S'\x06\x00'
p3776
tp3777
Rp3778
I7
tp3779
a(I681
I569
g1
(g5
S'\x0c\x00'
p3780
tp3781
Rp3782
I15
tp3783
a(I681
I585
g1
(g5
S'\x0c\x00'
p3784
tp3785
Rp3786
I15
tp3787
a(I684
I652
g1
(g5
S'\x06\x00'
p3788
tp3789
Rp3790
I7
tp3791
a(I687
I484
g1
(g5
S'\x19\x00'
p3792
tp3793
Rp3794
I31
tp3795
a(I687
I671
g1
(g5
S'\x19\x00'
p3796
tp3797
Rp3798
I31
tp3799
a(I687
I702
g1
(g5
S'\x19\x00'
p3800
tp3801
Rp3802
I31
tp3803
a(I687
I734
g1
(g5
S'\x19\x00'
p3804
tp3805
Rp3806
I31
tp3807
a(I690
I581
g1
(g5
S'\x06\x00'
p3808
tp3809
Rp3810
I7
tp3811
a(I693
I569
g1
(g5
S'\r\x00'
p3812
tp3813
Rp3814
I16
tp3815
a(I693
I648
g1
(g5
S'\r\x00'
p3816
tp3817
Rp3818
I16
tp3819
a(I696
I581
g1
(g5
S'\x07\x00'
p3820
tp3821
Rp3822
I8
tp3823
a(I696
I628
g1
(g5
S'\x07\x00'
p3824
tp3825
Rp3826
I8
tp3827
a(I696
I636
g1
(g5
S'\x07\x00'
p3828
tp3829
Rp3830
I8
tp3831
a(I700
I875
g1
(g5
S'\xc8\x00'
p3832
tp3833
Rp3834
I250
tp3835
a(I703
I621
g1
(g5
S'\x06\x00'
p3836
tp3837
Rp3838
I7
tp3839
a(I709
I605
g1
(g5
S'\x06\x00'
p3840
tp3841
Rp3842
I7
tp3843
a(I709
I613
g1
(g5
S'\x06\x00'
p3844
tp3845
Rp3846
I7
tp3847
a(I709
I621
g1
(g5
S'\x06\x00'
p3848
tp3849
Rp3850
I7
tp3851
a(I712
I484
g1
(g5
S'\x19\x00'
p3852
tp3853
Rp3854
I31
tp3855
a(I712
I577
g1
(g5
S'\x19\x00'
p3856
tp3857
Rp3858
I31
tp3859
a(I718
I601
g1
(g5
S'\r\x00'
p3860
tp3861
Rp3862
I16
tp3863
a(I718
I617
g1
(g5
S'\r\x00'
p3864
tp3865
Rp3866
I16
tp3867
a(I725
I531
g1
(g5
S'2\x00'
p3868
tp3869
Rp3870
I62
tp3871
a(I737
I484
g1
(g5
S'\x19\x00'
p3872
tp3873
Rp3874
I31
tp3875
a(I737
I577
g1
(g5
S'\x19\x00'
p3876
tp3877
Rp3878
I31
tp3879
a(I737
I609
g1
(g5
S'\x19\x00'
p3880
tp3881
Rp3882
I31
tp3883
a(I750
I62
g1
(g5
S'd\x00'
p3884
tp3885
Rp3886
I125
tp3887
a(I750
I187
g1
(g5
S'd\x00'
p3888
tp3889
Rp3890
I125
tp3891
a(I750
I312
g1
(g5
S'd\x00'
p3892
tp3893
Rp3894
I125
tp3895
a(I750
I687
g1
(g5
S'd\x00'
p3896
tp3897
Rp3898
I125
tp3899
a(I762
I484
g1
(g5
S'\x19\x00'
p3900
tp3901
Rp3902
I31
tp3903
a(I775
I531
g1
(g5
S'2\x00'
p3904
tp3905
Rp3906
I62
tp3907
a(I775
I593
g1
(g5
S'2\x00'
p3908
tp3909
Rp3910
I62
tp3911
a(I787
I484
g1
(g5
S'\x19\x00'
p3912
tp3913
Rp3914
I31
tp3915
a.