(lp0
(I6
I444
cnumpy.core.multiarray
scalar
p1
(cnumpy
dtype
p2
(S'i2'
p3
I0
I1
tp4
Rp5
(I3
S'<'
p6
NNNI-1
I-1
I0
tp7
bS'\x0c\x00'
p8
tp9
Rp10
I15
tp11
a(I6
I460
g1
(g5
S'\x0c\x00'
p12
tp13
Rp14
I15
tp15
a(I6
I476
g1
(g5
S'\x0c\x00'
p16
tp17
Rp18
I15
tp19
a(I6
I492
g1
(g5
S'\x0c\x00'
p20
tp21
Rp22
I15
tp23
a(I6
I788
g1
(g5
S'\x0c\x00'
p24
tp25
Rp26
I15
tp27
a(I12
I765
g1
(g5
S'\x19\x00'
p28
tp29
Rp30
I31
tp31
a(I12
I921
g1
(g5
S'\x19\x00'
p32
tp33
Rp34
I31
tp35
a(I18
I492
g1
(g5
S'\r\x00'
p36
tp37
Rp38
I16
tp39
a(I18
I788
g1
(g5
S'\r\x00'
p40
tp41
Rp42
I16
tp43
a(I25
I31
g1
(g5
S'2\x00'
p44
tp45
Rp46
I62
tp47
a(I25
I93
g1
(g5
S'2\x00'
p48
tp49
Rp50
I62
tp51
a(I25
I156
g1
(g5
S'2\x00'
p52
tp53
Rp54
I62
tp55
a(I25
I218
g1
(g5
S'2\x00'
p56
tp57
Rp58
I62
tp59
a(I25
I406
g1
(g5
S'2\x00'
p60
tp61
Rp62
I62
tp63
a(I25
I656
g1
(g5
S'2\x00'
p64
tp65
Rp66
I62
tp67
a(I25
I718
g1
(g5
S'2\x00'
p68
tp69
Rp70
I62
tp71
a(I25
I968
g1
(g5
S'2\x00'
p72
tp73
Rp74
I62
tp75
a(I31
I492
g1
(g5
S'\x0c\x00'
p76
tp77
Rp78
I15
tp79
a(I31
I788
g1
(g5
S'\x0c\x00'
p80
tp81
Rp82
I15
tp83
a(I37
I765
g1
(g5
S'\x19\x00'
p84
tp85
Rp86
I31
tp87
a(I37
I921
g1
(g5
S'\x19\x00'
p88
tp89
Rp90
I31
tp91
a(I43
I492
g1
(g5
S'\r\x00'
p92
tp93
Rp94
I16
tp95
a(I43
I788
g1
(g5
S'\r\x00'
p96
tp97
Rp98
I16
tp99
a(I50
I312
g1
(g5
S'd\x00'
p100
tp101
Rp102
I125
tp103
a(I50
I562
g1
(g5
S'd\x00'
p104
tp105
Rp106
I125
tp107
a(I56
I492
g1
(g5
S'\x0c\x00'
p108
tp109
Rp110
I15
tp111
a(I56
I632
g1
(g5
S'\x0c\x00'
p112
tp113
Rp114
I15
tp115
a(I56
I648
g1
(g5
S'\x0c\x00'
p116
tp117
Rp118
I15
tp119
a(I56
I663
g1
(g5
S'\x0c\x00'
p120
tp121
Rp122
I15
tp123
a(I56
I679
g1
(g5
S'\x0c\x00'
p124
tp125
Rp126
I15
tp127
a(I56
I694
g1
(g5
S'\x0c\x00'
p128
tp129
Rp130
I15
tp131
a(I56
I710
g1
(g5
S'\x0c\x00'
p132
tp133
Rp134
I15
tp135
a(I56
I726
g1
(g5
S'\x0c\x00'
p136
tp137
Rp138
I15
tp139
a(I56
I742
g1
(g5
S'\x0c\x00'
p140
tp141
Rp142
I15
tp143
a(I56
I788
g1
(g5
S'\x0c\x00'
p144
tp145
Rp146
I15
tp147
a(I62
I77
g1
(g5
S'\x19\x00'
p148
tp149
Rp150
I31
tp151
a(I62
I109
g1
(g5
S'\x19\x00'
p152
tp153
Rp154
I31
tp155
a(I62
I140
g1
(g5
S'\x19\x00'
p156
tp157
Rp158
I31
tp159
a(I62
I171
g1
(g5
S'\x19\x00'
p160
tp161
Rp162
I31
tp163
a(I62
I765
g1
(g5
S'\x19\x00'
p164
tp165
Rp166
I31
tp167
a(I62
I921
g1
(g5
S'\x19\x00'
p168
tp169
Rp170
I31
tp171
a(I68
I444
g1
(g5
S'\r\x00'
p172
tp173
Rp174
I16
tp175
a(I68
I460
g1
(g5
S'\r\x00'
p176
tp177
Rp178
I16
tp179
a(I68
I476
g1
(g5
S'\r\x00'
p180
tp181
Rp182
I16
tp183
a(I68
I492
g1
(g5
S'\r\x00'
p184
tp185
Rp186
I16
tp187
a(I68
I742
g1
(g5
S'\r\x00'
p188
tp189
Rp190
I16
tp191
a(I68
I788
g1
(g5
S'\r\x00'
p192
tp193
Rp194
I16
tp195
a(I75
I31
g1
(g5
S'2\x00'
p196
tp197
Rp198
I62
tp199
a(I75
I218
g1
(g5
S'2\x00'
p200
tp201
Rp202
I62
tp203
a(I75
I406
g1
(g5
S'2\x00'
p204
tp205
Rp206
I62
tp207
a(I75
I968
g1
(g5
S'2\x00'
p208
tp209
Rp210
I62
tp211
a(I81
I101
g1
(g5
S'\x0c\x00'
p212
tp213
Rp214
I15
tp215
a(I81
I132
g1
(g5
S'\x0c\x00'
p216
tp217
Rp218
I15
tp219
a(I81
I148
g1
(g5
S'\x0c\x00'
p220
tp221
Rp222
I15
tp223
a(I81
I742
g1
(g5
S'\x0c\x00'
p224
tp225
Rp226
I15
tp227
a(I81
I788
g1
(g5
S'\x0c\x00'
p228
tp229
Rp230
I15
tp231
a(I87
I77
g1
(g5
S'\x19\x00'
p232
tp233
Rp234
I31
tp235
a(I87
I171
g1
(g5
S'\x19\x00'
p236
tp237
Rp238
I31
tp239
a(I87
I452
g1
(g5
S'\x19\x00'
p240
tp241
Rp242
I31
tp243
a(I87
I484
g1
(g5
S'\x19\x00'
p244
tp245
Rp246
I31
tp247
a(I87
I765
g1
(g5
S'\x19\x00'
p248
tp249
Rp250
I31
tp251
a(I87
I921
g1
(g5
S'\x19\x00'
p252
tp253
Rp254
I31
tp255
a(I93
I148
g1
(g5
S'\r\x00'
p256
tp257
Rp258
I16
tp259
a(I93
I742
g1
(g5
S'\r\x00'
p260
tp261
Rp262
I16
tp263
a(I93
I788
g1
(g5
S'\r\x00'
p264
tp265
Rp266
I16
tp267
a(I106
I148
g1
(g5
S'\x0c\x00'
p268
tp269
Rp270
I15
tp271
a(I106
I742
g1
(g5
S'\x0c\x00'
p272
tp273
Rp274
I15
tp275
a(I106
I788
g1
(g5
S'\x0c\x00'
p276
tp277
Rp278
I15
tp279
a(I106
I898
g1
(g5
S'\x0c\x00'
p280
tp281
Rp282
I15
tp283
a(I112
I77
g1
(g5
S'\x19\x00'
p284
tp285
Rp286
I31
tp287
a(I112
I171
g1
(g5
S'\x19\x00'
p288
tp289
Rp290
I31
tp291
a(I112
I202
g1
(g5
S'\x19\x00'
p292
tp293
Rp294
I31
tp295
a(I112
I234
g1
(g5
S'\x19\x00'
p296
tp297
Rp298
I31
tp299
a(I112
I265
g1
(g5
S'\x19\x00'
p300
tp301
Rp302
I31
tp303
a(I112
I296
g1
(g5
S'\x19\x00'
p304
tp305
Rp306
I31
tp307
a(I112
I327
g1
(g5
S'\x19\x00'
p308
tp309
Rp310
I31
tp311
a(I112
I359
g1
(g5
S'\x19\x00'
p312
tp313
Rp314
I31
tp315
a(I112
I765
g1
(g5
S'\x19\x00'
p316
tp317
Rp318
I31
tp319
a(I112
I921
g1
(g5
S'\x19\x00'
p320
tp321
Rp322
I31
tp323
a(I118
I148
g1
(g5
S'\r\x00'
p324
tp325
Rp326
I16
tp327
a(I118
I742
g1
(g5
S'\r\x00'
p328
tp329
Rp330
I16
tp331
a(I118
I788
g1
(g5
S'\r\x00'
p332
tp333
Rp334
I16
tp335
a(I118
I898
g1
(g5
S'\r\x00'
p336
tp337
Rp338
I16
tp339
a(I125
I31
g1
(g5
S'2\x00'
p340
tp341
Rp342
I62
tp343
a(I125
I968
g1
(g5
S'2\x00'
p344
tp345
Rp346
I62
tp347
a(I131
I148
g1
(g5
S'\x0c\x00'
p348
tp349
Rp350
I15
tp351
a(I131
I226
g1
(g5
S'\x0c\x00'
p352
tp353
Rp354
I15
tp355
a(I131
I257
g1
(g5
S'\x0c\x00'
p356
tp357
Rp358
I15
tp359
a(I131
I273
g1
(g5
S'\x0c\x00'
p360
tp361
Rp362
I15
tp363
a(I131
I288
g1
(g5
S'\x0c\x00'
p364
tp365
Rp366
I15
tp367
a(I131
I304
g1
(g5
S'\x0c\x00'
p368
tp369
Rp370
I15
tp371
a(I131
I351
g1
(g5
S'\x0c\x00'
p372
tp373
Rp374
I15
tp375
a(I131
I367
g1
(g5
S'\x0c\x00'
p376
tp377
Rp378
I15
tp379
a(I131
I742
g1
(g5
S'\x0c\x00'
p380
tp381
Rp382
I15
tp383
a(I131
I788
g1
(g5
S'\x0c\x00'
p384
tp385
Rp386
I15
tp387
a(I137
I77
g1
(g5
S'\x19\x00'
p388
tp389
Rp390
I31
tp391
a(I137
I171
g1
(g5
S'\x19\x00'
p392
tp393
Rp394
I31
tp395
a(I137
I202
g1
(g5
S'\x19\x00'
p396
tp397
Rp398
I31
tp399
a(I137
I765
g1
(g5
S'\x19\x00'
p400
tp401
Rp402
I31
tp403
a(I137
I921
g1
(g5
S'\x19\x00'
p404
tp405
Rp406
I31
tp407
a(I143
I101
g1
(g5
S'\r\x00'
p408
tp409
Rp410
I16
tp411
a(I143
I117
g1
(g5
S'\r\x00'
p412
tp413
Rp414
I16
tp415
a(I143
I132
g1
(g5
S'\r\x00'
p416
tp417
Rp418
I16
tp419
a(I143
I148
g1
(g5
S'\r\x00'
p420
tp421
Rp422
I16
tp423
a(I143
I273
g1
(g5
S'\r\x00'
p424
tp425
Rp426
I16
tp427
a(I143
I288
g1
(g5
S'\r\x00'
p428
tp429
Rp430
I16
tp431
a(I143
I367
g1
(g5
S'\r\x00'
p432
tp433
Rp434
I16
tp435
a(I143
I742
g1
(g5
S'\r\x00'
p436
tp437
Rp438
I16
tp439
a(I143
I788
g1
(g5
S'\r\x00'
p440
tp441
Rp442
I16
tp443
a(I150
I437
g1
(g5
S'd\x00'
p444
tp445
Rp446
I125
tp447
a(I150
I562
g1
(g5
S'd\x00'
p448
tp449
Rp450
I125
tp451
a(I156
I194
g1
(g5
S'\x0c\x00'
p452
tp453
Rp454
I15
tp455
a(I156
I288
g1
(g5
S'\x0c\x00'
p456
tp457
Rp458
I15
tp459
a(I156
I367
g1
(g5
S'\x0c\x00'
p460
tp461
Rp462
I15
tp463
a(I156
I742
g1
(g5
S'\x0c\x00'
p464
tp465
Rp466
I15
tp467
a(I156
I788
g1
(g5
S'\x0c\x00'
p468
tp469
Rp470
I15
tp471
a(I162
I765
g1
(g5
S'\x19\x00'
p472
tp473
Rp474
I31
tp475
a(I162
I921
g1
(g5
S'\x19\x00'
p476
tp477
Rp478
I31
tp479
a(I168
I632
g1
(g5
S'\r\x00'
p480
tp481
Rp482
I16
tp483
a(I168
I648
g1
(g5
S'\r\x00'
p484
tp485
Rp486
I16
tp487
a(I168
I663
g1
(g5
S'\r\x00'
p488
tp489
Rp490
I16
tp491
a(I168
I679
g1
(g5
S'\r\x00'
p492
tp493
Rp494
I16
tp495
a(I168
I694
g1
(g5
S'\r\x00'
p496
tp497
Rp498
I16
tp499
a(I168
I710
g1
(g5
S'\r\x00'
p500
tp501
Rp502
I16
tp503
a(I168
I726
g1
(g5
S'\r\x00'
p504
tp505
Rp506
I16
tp507
a(I168
I742
g1
(g5
S'\r\x00'
p508
tp509
Rp510
I16
tp511
a(I168
I788
g1
(g5
S'\r\x00'
p512
tp513
Rp514
I16
tp515
a(I175
I31
g1
(g5
S'2\x00'
p516
tp517
Rp518
I62
tp519
a(I175
I93
g1
(g5
S'2\x00'
p520
tp521
Rp522
I62
tp523
a(I175
I156
g1
(g5
S'2\x00'
p524
tp525
Rp526
I62
tp527
a(I175
I968
g1
(g5
S'2\x00'
p528
tp529
Rp530
I62
tp531
a(I181
I788
g1
(g5
S'\x0c\x00'
p532
tp533
Rp534
I15
tp535
a(I187
I640
g1
(g5
S'\x19\x00'
p536
tp537
Rp538
I31
tp539
a(I187
I671
g1
(g5
S'\x19\x00'
p540
tp541
Rp542
I31
tp543
a(I187
I702
g1
(g5
S'\x19\x00'
p544
tp545
Rp546
I31
tp547
a(I187
I734
g1
(g5
S'\x19\x00'
p548
tp549
Rp550
I31
tp551
a(I187
I765
g1
(g5
S'\x19\x00'
p552
tp553
Rp554
I31
tp555
a(I187
I921
g1
(g5
S'\x19\x00'
p556
tp557
Rp558
I31
tp559
a(I193
I788
g1
(g5
S'\r\x00'
p560
tp561
Rp562
I16
tp563
a(I206
I194
g1
(g5
S'\x0c\x00'
p564
tp565
Rp566
I15
tp567
a(I206
I367
g1
(g5
S'\x0c\x00'
p568
tp569
Rp570
I15
tp571
a(I206
I538
g1
(g5
S'\x0c\x00'
p572
tp573
Rp574
I15
tp575
a(I206
I617
g1
(g5
S'\x0c\x00'
p576
tp577
Rp578
I15
tp579
a(I206
I788
g1
(g5
S'\x0c\x00'
p580
tp581
Rp582
I15
tp583
a(I212
I515
g1
(g5
S'\x19\x00'
p584
tp585
Rp586
I31
tp587
a(I212
I640
g1
(g5
S'\x19\x00'
p588
tp589
Rp590
I31
tp591
a(I212
I671
g1
(g5
S'\x19\x00'
p592
tp593
Rp594
I31
tp595
a(I212
I702
g1
(g5
S'\x19\x00'
p596
tp597
Rp598
I31
tp599
a(I212
I734
g1
(g5
S'\x19\x00'
p600
tp601
Rp602
I31
tp603
a(I212
I765
g1
(g5
S'\x19\x00'
p604
tp605
Rp606
I31
tp607
a(I212
I921
g1
(g5
S'\x19\x00'
p608
tp609
Rp610
I31
tp611
a(I218
I194
g1
(g5
S'\r\x00'
p612
tp613
Rp614
I16
tp615
a(I218
I210
g1
(g5
S'\r\x00'
p616
tp617
Rp618
I16
tp619
a(I218
I351
g1
(g5
S'\r\x00'
p620
tp621
Rp622
I16
tp623
a(I218
I367
g1
(g5
S'\r\x00'
p624
tp625
Rp626
I16
tp627
a(I218
I538
g1
(g5
S'\r\x00'
p628
tp629
Rp630
I16
tp631
a(I218
I617
g1
(g5
S'\r\x00'
p632
tp633
Rp634
I16
tp635
a(I218
I788
g1
(g5
S'\r\x00'
p636
tp637
Rp638
I16
tp639
a(I225
I156
g1
(g5
S'2\x00'
p640
tp641
Rp642
I62
tp643
a(I225
I968
g1
(g5
S'2\x00'
p644
tp645
Rp646
I62
tp647
a(I231
I194
g1
(g5
S'\x0c\x00'
p648
tp649
Rp650
I15
tp651
a(I231
I210
g1
(g5
S'\x0c\x00'
p652
tp653
Rp654
I15
tp655
a(I231
I351
g1
(g5
S'\x0c\x00'
p656
tp657
Rp658
I15
tp659
a(I231
I367
g1
(g5
S'\x0c\x00'
p660
tp661
Rp662
I15
tp663
a(I231
I507
g1
(g5
S'\x0c\x00'
p664
tp665
Rp666
I15
tp667
a(I231
I523
g1
(g5
S'\x0c\x00'
p668
tp669
Rp670
I15
tp671
a(I231
I538
g1
(g5
S'\x0c\x00'
p672
tp673
Rp674
I15
tp675
a(I231
I617
g1
(g5
S'\x0c\x00'
p676
tp677
Rp678
I15
tp679
a(I231
I742
g1
(g5
S'\x0c\x00'
p680
tp681
Rp682
I15
tp683
a(I231
I788
g1
(g5
S'\x0c\x00'
p684
tp685
Rp686
I15
tp687
a(I237
I765
g1
(g5
S'\x19\x00'
p688
tp689
Rp690
I31
tp691
a(I237
I921
g1
(g5
S'\x19\x00'
p692
tp693
Rp694
I31
tp695
a(I243
I194
g1
(g5
S'\r\x00'
p696
tp697
Rp698
I16
tp699
a(I243
I367
g1
(g5
S'\r\x00'
p700
tp701
Rp702
I16
tp703
a(I243
I742
g1
(g5
S'\r\x00'
p704
tp705
Rp706
I16
tp707
a(I243
I788
g1
(g5
S'\r\x00'
p708
tp709
Rp710
I16
tp711
a(I250
I62
g1
(g5
S'd\x00'
p712
tp713
Rp714
I125
tp715
a(I250
I437
g1
(g5
S'd\x00'
p716
tp717
Rp718
I125
tp719
a(I256
I742
g1
(g5
S'\x0c\x00'
p720
tp721
Rp722
I15
tp723
a(I256
I788
g1
(g5
S'\x0c\x00'
p724
tp725
Rp726
I15
tp727
a(I262
I765
g1
(g5
S'\x19\x00'
p728
tp729
Rp730
I31
tp731
a(I262
I921
g1
(g5
S'\x19\x00'
p732
tp733
Rp734
I31
tp735
a(I268
I742
g1
(g5
S'\r\x00'
p736
tp737
Rp738
I16
tp739
a(I268
I788
g1
(g5
S'\r\x00'
p740
tp741
Rp742
I16
tp743
a(I275
I156
g1
(g5
S'2\x00'
p744
tp745
Rp746
I62
tp747
a(I275
I968
g1
(g5
S'2\x00'
p748
tp749
Rp750
I62
tp751
a(I281
I742
g1
(g5
S'\x0c\x00'
p752
tp753
Rp754
I15
tp755
a(I281
I788
g1
(g5
S'\x0c\x00'
p756
tp757
Rp758
I15
tp759
a(I287
I765
g1
(g5
S'\x19\x00'
p760
tp761
Rp762
I31
tp763
a(I287
I921
g1
(g5
S'\x19\x00'
p764
tp765
Rp766
I31
tp767
a(I293
I194
g1
(g5
S'\r\x00'
p768
tp769
Rp770
I16
tp771
a(I293
I273
g1
(g5
S'\r\x00'
p772
tp773
Rp774
I16
tp775
a(I293
I288
g1
(g5
S'\r\x00'
p776
tp777
Rp778
I16
tp779
a(I293
I367
g1
(g5
S'\r\x00'
p780
tp781
Rp782
I16
tp783
a(I293
I742
g1
(g5
S'\r\x00'
p784
tp785
Rp786
I16
tp787
a(I293
I788
g1
(g5
S'\r\x00'
p788
tp789
Rp790
I16
tp791
a(I306
I273
g1
(g5
S'\x0c\x00'
p792
tp793
Rp794
I15
tp795
a(I306
I538
g1
(g5
S'\x0c\x00'
p796
tp797
Rp798
I15
tp799
a(I306
I617
g1
(g5
S'\x0c\x00'
p800
tp801
Rp802
I15
tp803
a(I306
I742
g1
(g5
S'\x0c\x00'
p804
tp805
Rp806
I15
tp807
a(I306
I788
g1
(g5
S'\x0c\x00'
p808
tp809
Rp810
I15
tp811
a(I306
I913
g1
(g5
S'\x0c\x00'
p812
tp813
Rp814
I15
tp815
a(I306
I929
g1
(g5
S'\x0c\x00'
p816
tp817
Rp818
I15
tp819
a(I306
I944
g1
(g5
S'\x0c\x00'
p820
tp821
Rp822
I15
tp823
a(I306
I960
g1
(g5
S'\x0c\x00'
p824
tp825
Rp826
I15
tp827
a(I306
I976
g1
(g5
S'\x0c\x00'
p828
tp829
Rp830
I15
tp831
a(I306
I992
g1
(g5
S'\x0c\x00'
p832
tp833
Rp834
I15
tp835
a(I312
I15
g1
(g5
S'\x19\x00'
p836
tp837
Rp838
I31
tp839
a(I312
I46
g1
(g5
S'\x19\x00'
p840
tp841
Rp842
I31
tp843
a(I312
I77
g1
(g5
S'\x19\x00'
p844
tp845
Rp846
I31
tp847
a(I312
I109
g1
(g5
S'\x19\x00'
p848
tp849
Rp850
I31
tp851
a(I312
I202
g1
(g5
S'\x19\x00'
p852
tp853
Rp854
I31
tp855
a(I312
I296
g1
(g5
S'\x19\x00'
p856
tp857
Rp858
I31
tp859
a(I312
I359
g1
(g5
S'\x19\x00'
p860
tp861
Rp862
I31
tp863
a(I312
I515
g1
(g5
S'\x19\x00'
p864
tp865
Rp866
I31
tp867
a(I312
I765
g1
(g5
S'\x19\x00'
p868
tp869
Rp870
I31
tp871
a(I318
I226
g1
(g5
S'\r\x00'
p872
tp873
Rp874
I16
tp875
a(I318
I257
g1
(g5
S'\r\x00'
p876
tp877
Rp878
I16
tp879
a(I318
I273
g1
(g5
S'\r\x00'
p880
tp881
Rp882
I16
tp883
a(I318
I538
g1
(g5
S'\r\x00'
p884
tp885
Rp886
I16
tp887
a(I318
I617
g1
(g5
S'\r\x00'
p888
tp889
Rp890
I16
tp891
a(I318
I742
g1
(g5
S'\r\x00'
p892
tp893
Rp894
I16
tp895
a(I318
I788
g1
(g5
S'\r\x00'
p896
tp897
Rp898
I16
tp899
a(I318
I804
g1
(g5
S'\r\x00'
p900
tp901
Rp902
I16
tp903
a(I318
I819
g1
(g5
S'\r\x00'
p904
tp905
Rp906
I16
tp907
a(I318
I835
g1
(g5
S'\r\x00'
p908
tp909
Rp910
I16
tp911
a(I325
I156
g1
(g5
S'2\x00'
p912
tp913
Rp914
I62
tp915
a(I325
I406
g1
(g5
S'2\x00'
p916
tp917
Rp918
I62
tp919
a(I325
I468
g1
(g5
S'2\x00'
p920
tp921
Rp922
I62
tp923
a(I331
I538
g1
(g5
S'\x0c\x00'
p924
tp925
Rp926
I15
tp927
a(I331
I617
g1
(g5
S'\x0c\x00'
p928
tp929
Rp930
I15
tp931
a(I331
I819
g1
(g5
S'\x0c\x00'
p932
tp933
Rp934
I15
tp935
a(I337
I109
g1
(g5
S'\x19\x00'
p936
tp937
Rp938
I31
tp939
a(I337
I202
g1
(g5
S'\x19\x00'
p940
tp941
Rp942
I31
tp943
a(I337
I234
g1
(g5
S'\x19\x00'
p944
tp945
Rp946
I31
tp947
a(I337
I265
g1
(g5
S'\x19\x00'
p948
tp949
Rp950
I31
tp951
a(I337
I296
g1
(g5
S'\x19\x00'
p952
tp953
Rp954
I31
tp955
a(I337
I327
g1
(g5
S'\x19\x00'
p956
tp957
Rp958
I31
tp959
a(I337
I359
g1
(g5
S'\x19\x00'
p960
tp961
Rp962
I31
tp963
a(I337
I515
g1
(g5
S'\x19\x00'
p964
tp965
Rp966
I31
tp967
a(I337
I640
g1
(g5
S'\x19\x00'
p968
tp969
Rp970
I31
tp971
a(I337
I671
g1
(g5
S'\x19\x00'
p972
tp973
Rp974
I31
tp975
a(I337
I702
g1
(g5
S'\x19\x00'
p976
tp977
Rp978
I31
tp979
a(I337
I734
g1
(g5
S'\x19\x00'
p980
tp981
Rp982
I31
tp983
a(I337
I765
g1
(g5
S'\x19\x00'
p984
tp985
Rp986
I31
tp987
a(I337
I796
g1
(g5
S'\x19\x00'
p988
tp989
Rp990
I31
tp991
a(I343
I538
g1
(g5
S'\r\x00'
p992
tp993
Rp994
I16
tp995
a(I343
I554
g1
(g5
S'\r\x00'
p996
tp997
Rp998
I16
tp999
a(I343
I569
g1
(g5
S'\r\x00'
p1000
tp1001
Rp1002
I16
tp1003
a(I343
I585
g1
(g5
S'\r\x00'
p1004
tp1005
Rp1006
I16
tp1007
a(I343
I601
g1
(g5
S'\r\x00'
p1008
tp1009
Rp1010
I16
tp1011
a(I343
I617
g1
(g5
S'\r\x00'
p1012
tp1013
Rp1014
I16
tp1015
a(I343
I819
g1
(g5
S'\r\x00'
p1016
tp1017
Rp1018
I16
tp1019
a(I356
I507
g1
(g5
S'\x0c\x00'
p1020
tp1021
Rp1022
I15
tp1023
a(I356
I523
g1
(g5
S'\x0c\x00'
p1024
tp1025
Rp1026
I15
tp1027
a(I356
I538
g1
(g5
S'\x0c\x00'
p1028
tp1029
Rp1030
I15
tp1031
a(I356
I554
g1
(g5
S'\x0c\x00'
p1032
tp1033
Rp1034
I15
tp1035
a(I356
I819
g1
(g5
S'\x0c\x00'
p1036
tp1037
Rp1038
I15
tp1039
a(I362
I109
g1
(g5
S'\x19\x00'
p1040
tp1041
Rp1042
I31
tp1043
a(I362
I452
g1
(g5
S'\x19\x00'
p1044
tp1045
Rp1046
I31
tp1047
a(I362
I484
g1
(g5
S'\x19\x00'
p1048
tp1049
Rp1050
I31
tp1051
a(I362
I577
g1
(g5
S'\x19\x00'
p1052
tp1053
Rp1054
I31
tp1055
a(I362
I609
g1
(g5
S'\x19\x00'
p1056
tp1057
Rp1058
I31
tp1059
a(I368
I507
g1
(g5
S'\r\x00'
p1060
tp1061
Rp1062
I16
tp1063
a(I368
I819
g1
(g5
S'\r\x00'
p1064
tp1065
Rp1066
I16
tp1067
a(I375
I156
g1
(g5
S'2\x00'
p1068
tp1069
Rp1070
I62
tp1071
a(I375
I218
g1
(g5
S'2\x00'
p1072
tp1073
Rp1074
I62
tp1075
a(I375
I281
g1
(g5
S'2\x00'
p1076
tp1077
Rp1078
I62
tp1079
a(I375
I343
g1
(g5
S'2\x00'
p1080
tp1081
Rp1082
I62
tp1083
a(I375
I406
g1
(g5
S'2\x00'
p1084
tp1085
Rp1086
I62
tp1087
a(I375
I656
g1
(g5
S'2\x00'
p1088
tp1089
Rp1090
I62
tp1091
a(I375
I718
g1
(g5
S'2\x00'
p1092
tp1093
Rp1094
I62
tp1095
a(I375
I781
g1
(g5
S'2\x00'
p1096
tp1097
Rp1098
I62
tp1099
a(I381
I476
g1
(g5
S'\x0c\x00'
p1100
tp1101
Rp1102
I15
tp1103
a(I381
I492
g1
(g5
S'\x0c\x00'
p1104
tp1105
Rp1106
I15
tp1107
a(I381
I601
g1
(g5
S'\x0c\x00'
p1108
tp1109
Rp1110
I15
tp1111
a(I381
I617
g1
(g5
S'\x0c\x00'
p1112
tp1113
Rp1114
I15
tp1115
a(I381
I819
g1
(g5
S'\x0c\x00'
p1116
tp1117
Rp1118
I15
tp1119
a(I387
I109
g1
(g5
S'\x19\x00'
p1120
tp1121
Rp1122
I31
tp1123
a(I387
I452
g1
(g5
S'\x19\x00'
p1124
tp1125
Rp1126
I31
tp1127
a(I393
I476
g1
(g5
S'\r\x00'
p1128
tp1129
Rp1130
I16
tp1131
a(I393
I617
g1
(g5
S'\r\x00'
p1132
tp1133
Rp1134
I16
tp1135
a(I393
I819
g1
(g5
S'\r\x00'
p1136
tp1137
Rp1138
I16
tp1139
a(I406
I617
g1
(g5
S'\x0c\x00'
p1140
tp1141
Rp1142
I15
tp1143
a(I412
I109
g1
(g5
S'\x19\x00'
p1144
tp1145
Rp1146
I31
tp1147
a(I412
I452
g1
(g5
S'\x19\x00'
p1148
tp1149
Rp1150
I31
tp1151
a(I412
I827
g1
(g5
S'\x19\x00'
p1152
tp1153
Rp1154
I31
tp1155
a(I418
I851
g1
(g5
S'\r\x00'
p1156
tp1157
Rp1158
I16
tp1159
a(I418
I867
g1
(g5
S'\r\x00'
p1160
tp1161
Rp1162
I16
tp1163
a(I418
I882
g1
(g5
S'\r\x00'
p1164
tp1165
Rp1166
I16
tp1167
a(I418
I898
g1
(g5
S'\r\x00'
p1168
tp1169
Rp1170
I16
tp1171
a(I418
I913
g1
(g5
S'\r\x00'
p1172
tp1173
Rp1174
I16
tp1175
a(I418
I929
g1
(g5
S'\r\x00'
p1176
tp1177
Rp1178
I16
tp1179
a(I418
I944
g1
(g5
S'\r\x00'
p1180
tp1181
Rp1182
I16
tp1183
a(I418
I960
g1
(g5
S'\r\x00'
p1184
tp1185
Rp1186
I16
tp1187
a(I418
I976
g1
(g5
S'\r\x00'
p1188
tp1189
Rp1190
I16
tp1191
a(I418
I992
g1
(g5
S'\r\x00'
p1192
tp1193
Rp1194
I16
tp1195
a(I425
I156
g1
(g5
S'2\x00'
p1196
tp1197
Rp1198
I62
tp1199
a(I425
I218
g1
(g5
S'2\x00'
p1200
tp1201
Rp1202
I62
tp1203
a(I425
I281
g1
(g5
S'2\x00'
p1204
tp1205
Rp1206
I62
tp1207
a(I425
I343
g1
(g5
S'2\x00'
p1208
tp1209
Rp1210
I62
tp1211
a(I425
I406
g1
(g5
S'2\x00'
p1212
tp1213
Rp1214
I62
tp1215
a(I425
I781
g1
(g5
S'2\x00'
p1216
tp1217
Rp1218
I62
tp1219
a(I437
I15
g1
(g5
S'\x19\x00'
p1220
tp1221
Rp1222
I31
tp1223
a(I437
I46
g1
(g5
S'\x19\x00'
p1224
tp1225
Rp1226
I31
tp1227
a(I437
I77
g1
(g5
S'\x19\x00'
p1228
tp1229
Rp1230
I31
tp1231
a(I437
I109
g1
(g5
S'\x19\x00'
p1232
tp1233
Rp1234
I31
tp1235
a(I437
I452
g1
(g5
S'\x19\x00'
p1236
tp1237
Rp1238
I31
tp1239
a(I437
I827
g1
(g5
S'\x19\x00'
p1240
tp1241
Rp1242
I31
tp1243
a(I437
I859
g1
(g5
S'\x19\x00'
p1244
tp1245
Rp1246
I31
tp1247
a(I437
I890
g1
(g5
S'\x19\x00'
p1248
tp1249
Rp1250
I31
tp1251
a(I437
I921
g1
(g5
S'\x19\x00'
p1252
tp1253
Rp1254
I31
tp1255
a(I437
I952
g1
(g5
S'\x19\x00'
p1256
tp1257
Rp1258
I31
tp1259
a(I437
I984
g1
(g5
S'\x19\x00'
p1260
tp1261
Rp1262
I31
tp1263
a(I450
I687
g1
(g5
S'd\x00'
p1264
tp1265
Rp1266
I125
tp1267
a(I462
I140
g1
(g5
S'\x19\x00'
p1268
tp1269
Rp1270
I31
tp1271
a(I462
I171
g1
(g5
S'\x19\x00'
p1272
tp1273
Rp1274
I31
tp1275
a(I462
I265
g1
(g5
S'\x19\x00'
p1276
tp1277
Rp1278
I31
tp1279
a(I462
I296
g1
(g5
S'\x19\x00'
p1280
tp1281
Rp1282
I31
tp1283
a(I462
I452
g1
(g5
S'\x19\x00'
p1284
tp1285
Rp1286
I31
tp1287
a(I462
I827
g1
(g5
S'\x19\x00'
p1288
tp1289
Rp1290
I31
tp1291
a(I462
I859
g1
(g5
S'\x19\x00'
p1292
tp1293
Rp1294
I31
tp1295
a(I475
I31
g1
(g5
S'2\x00'
p1296
tp1297
Rp1298
I62
tp1299
a(I475
I93
g1
(g5
S'2\x00'
p1300
tp1301
Rp1302
I62
tp1303
a(I475
I218
g1
(g5
S'2\x00'
p1304
tp1305
Rp1306
I62
tp1307
a(I475
I343
g1
(g5
S'2\x00'
p1308
tp1309
Rp1310
I62
tp1311
a(I475
I406
g1
(g5
S'2\x00'
p1312
tp1313
Rp1314
I62
tp1315
a(I475
I781
g1
(g5
S'2\x00'
p1316
tp1317
Rp1318
I62
tp1319
a(I475
I906
g1
(g5
S'2\x00'
p1320
tp1321
Rp1322
I62
tp1323
a(I475
I968
g1
(g5
S'2\x00'
p1324
tp1325
Rp1326
I62
tp1327
a(I481
I304
g1
(g5
S'\x0c\x00'
p1328
tp1329
Rp1330
I15
tp1331
a(I481
I617
g1
(g5
S'\x0c\x00'
p1332
tp1333
Rp1334
I15
tp1335
a(I481
I819
g1
(g5
S'\x0c\x00'
p1336
tp1337
Rp1338
I15
tp1339
a(I481
I835
g1
(g5
S'\x0c\x00'
p1340
tp1341
Rp1342
I15
tp1343
a(I481
I851
g1
(g5
S'\x0c\x00'
p1344
tp1345
Rp1346
I15
tp1347
a(I481
I867
g1
(g5
S'\x0c\x00'
p1348
tp1349
Rp1350
I15
tp1351
a(I487
I140
g1
(g5
S'\x19\x00'
p1352
tp1353
Rp1354
I31
tp1355
a(I487
I452
g1
(g5
S'\x19\x00'
p1356
tp1357
Rp1358
I31
tp1359
a(I493
I304
g1
(g5
S'\r\x00'
p1360
tp1361
Rp1362
I16
tp1363
a(I493
I476
g1
(g5
S'\r\x00'
p1364
tp1365
Rp1366
I16
tp1367
a(I493
I617
g1
(g5
S'\r\x00'
p1368
tp1369
Rp1370
I16
tp1371
a(I493
I867
g1
(g5
S'\r\x00'
p1372
tp1373
Rp1374
I16
tp1375
a(I506
I69
g1
(g5
S'\x0c\x00'
p1376
tp1377
Rp1378
I15
tp1379
a(I506
I85
g1
(g5
S'\x0c\x00'
p1380
tp1381
Rp1382
I15
tp1383
a(I506
I101
g1
(g5
S'\x0c\x00'
p1384
tp1385
Rp1386
I15
tp1387
a(I506
I117
g1
(g5
S'\x0c\x00'
p1388
tp1389
Rp1390
I15
tp1391
a(I506
I132
g1
(g5
S'\x0c\x00'
p1392
tp1393
Rp1394
I15
tp1395
a(I506
I148
g1
(g5
S'\x0c\x00'
p1396
tp1397
Rp1398
I15
tp1399
a(I506
I304
g1
(g5
S'\x0c\x00'
p1400
tp1401
Rp1402
I15
tp1403
a(I506
I788
g1
(g5
S'\x0c\x00'
p1404
tp1405
Rp1406
I15
tp1407
a(I506
I867
g1
(g5
S'\x0c\x00'
p1408
tp1409
Rp1410
I15
tp1411
a(I512
I609
g1
(g5
S'\x19\x00'
p1412
tp1413
Rp1414
I31
tp1415
a(I512
I640
g1
(g5
S'\x19\x00'
p1416
tp1417
Rp1418
I31
tp1419
a(I512
I671
g1
(g5
S'\x19\x00'
p1420
tp1421
Rp1422
I31
tp1423
a(I512
I765
g1
(g5
S'\x19\x00'
p1424
tp1425
Rp1426
I31
tp1427
a(I518
I69
g1
(g5
S'\r\x00'
p1428
tp1429
Rp1430
I16
tp1431
a(I518
I304
g1
(g5
S'\r\x00'
p1432
tp1433
Rp1434
I16
tp1435
a(I518
I507
g1
(g5
S'\r\x00'
p1436
tp1437
Rp1438
I16
tp1439
a(I518
I523
g1
(g5
S'\r\x00'
p1440
tp1441
Rp1442
I16
tp1443
a(I518
I538
g1
(g5
S'\r\x00'
p1444
tp1445
Rp1446
I16
tp1447
a(I518
I554
g1
(g5
S'\r\x00'
p1448
tp1449
Rp1450
I16
tp1451
a(I518
I569
g1
(g5
S'\r\x00'
p1452
tp1453
Rp1454
I16
tp1455
a(I518
I585
g1
(g5
S'\r\x00'
p1456
tp1457
Rp1458
I16
tp1459
a(I518
I788
g1
(g5
S'\r\x00'
p1460
tp1461
Rp1462
I16
tp1463
a(I518
I867
g1
(g5
S'\r\x00'
p1464
tp1465
Rp1466
I16
tp1467
a(I525
I31
g1
(g5
S'2\x00'
p1468
tp1469
Rp1470
I62
tp1471
a(I525
I218
g1
(g5
S'2\x00'
p1472
tp1473
Rp1474
I62
tp1475
a(I525
I343
g1
(g5
S'2\x00'
p1476
tp1477
Rp1478
I62
tp1479
a(I525
I406
g1
(g5
S'2\x00'
p1480
tp1481
Rp1482
I62
tp1483
a(I525
I468
g1
(g5
S'2\x00'
p1484
tp1485
Rp1486
I62
tp1487
a(I525
I718
g1
(g5
S'2\x00'
p1488
tp1489
Rp1490
I62
tp1491
a(I531
I69
g1
(g5
S'\x0c\x00'
p1492
tp1493
Rp1494
I15
tp1495
a(I531
I304
g1
(g5
S'\x0c\x00'
p1496
tp1497
Rp1498
I15
tp1499
a(I531
I632
g1
(g5
S'\x0c\x00'
p1500
tp1501
Rp1502
I15
tp1503
a(I531
I788
g1
(g5
S'\x0c\x00'
p1504
tp1505
Rp1506
I15
tp1507
a(I531
I867
g1
(g5
S'\x0c\x00'
p1508
tp1509
Rp1510
I15
tp1511
a(I537
I515
g1
(g5
S'\x19\x00'
p1512
tp1513
Rp1514
I31
tp1515
a(I537
I546
g1
(g5
S'\x19\x00'
p1516
tp1517
Rp1518
I31
tp1519
a(I537
I577
g1
(g5
S'\x19\x00'
p1520
tp1521
Rp1522
I31
tp1523
a(I537
I609
g1
(g5
S'\x19\x00'
p1524
tp1525
Rp1526
I31
tp1527
a(I537
I765
g1
(g5
S'\x19\x00'
p1528
tp1529
Rp1530
I31
tp1531
a(I543
I69
g1
(g5
S'\r\x00'
p1532
tp1533
Rp1534
I16
tp1535
a(I543
I304
g1
(g5
S'\r\x00'
p1536
tp1537
Rp1538
I16
tp1539
a(I543
I788
g1
(g5
S'\r\x00'
p1540
tp1541
Rp1542
I16
tp1543
a(I543
I804
g1
(g5
S'\r\x00'
p1544
tp1545
Rp1546
I16
tp1547
a(I543
I867
g1
(g5
S'\r\x00'
p1548
tp1549
Rp1550
I16
tp1551
a(I550
I937
g1
(g5
S'd\x00'
p1552
tp1553
Rp1554
I125
tp1555
a(I556
I69
g1
(g5
S'\x0c\x00'
p1556
tp1557
Rp1558
I15
tp1559
a(I556
I304
g1
(g5
S'\x0c\x00'
p1560
tp1561
Rp1562
I15
tp1563
a(I556
I569
g1
(g5
S'\x0c\x00'
p1564
tp1565
Rp1566
I15
tp1567
a(I556
I585
g1
(g5
S'\x0c\x00'
p1568
tp1569
Rp1570
I15
tp1571
a(I556
I601
g1
(g5
S'\x0c\x00'
p1572
tp1573
Rp1574
I15
tp1575
a(I562
I484
g1
(g5
S'\x19\x00'
p1576
tp1577
Rp1578
I31
tp1579
a(I562
I515
g1
(g5
S'\x19\x00'
p1580
tp1581
Rp1582
I31
tp1583
a(I562
I546
g1
(g5
S'\x19\x00'
p1584
tp1585
Rp1586
I31
tp1587
a(I568
I69
g1
(g5
S'\r\x00'
p1588
tp1589
Rp1590
I16
tp1591
a(I568
I304
g1
(g5
S'\r\x00'
p1592
tp1593
Rp1594
I16
tp1595
a(I568
I569
g1
(g5
S'\r\x00'
p1596
tp1597
Rp1598
I16
tp1599
a(I568
I679
g1
(g5
S'\r\x00'
p1600
tp1601
Rp1602
I16
tp1603
a(I575
I31
g1
(g5
S'2\x00'
p1604
tp1605
Rp1606
I62
tp1607
a(I575
I343
g1
(g5
S'2\x00'
p1608
tp1609
Rp1610
I62
tp1611
a(I575
I718
g1
(g5
S'2\x00'
p1612
tp1613
Rp1614
I62
tp1615
a(I575
I781
g1
(g5
S'2\x00'
p1616
tp1617
Rp1618
I62
tp1619
a(I575
I843
g1
(g5
S'2\x00'
p1620
tp1621
Rp1622
I62
tp1623
a(I581
I69
g1
(g5
S'\x0c\x00'
p1624
tp1625
Rp1626
I15
tp1627
a(I581
I304
g1
(g5
S'\x0c\x00'
p1628
tp1629
Rp1630
I15
tp1631
a(I581
I538
g1
(g5
S'\x0c\x00'
p1632
tp1633
Rp1634
I15
tp1635
a(I581
I554
g1
(g5
S'\x0c\x00'
p1636
tp1637
Rp1638
I15
tp1639
a(I581
I648
g1
(g5
S'\x0c\x00'
p1640
tp1641
Rp1642
I15
tp1643
a(I587
I202
g1
(g5
S'\x19\x00'
p1644
tp1645
Rp1646
I31
tp1647
a(I587
I234
g1
(g5
S'\x19\x00'
p1648
tp1649
Rp1650
I31
tp1651
a(I587
I484
g1
(g5
S'\x19\x00'
p1652
tp1653
Rp1654
I31
tp1655
a(I587
I515
g1
(g5
S'\x19\x00'
p1656
tp1657
Rp1658
I31
tp1659
a(I587
I671
g1
(g5
S'\x19\x00'
p1660
tp1661
Rp1662
I31
tp1663
a(I593
I69
g1
(g5
S'\r\x00'
p1664
tp1665
Rp1666
I16
tp1667
a(I593
I304
g1
(g5
S'\r\x00'
p1668
tp1669
Rp1670
I16
tp1671
a(I593
I648
g1
(g5
S'\r\x00'
p1672
tp1673
Rp1674
I16
tp1675
a(I606
I69
g1
(g5
S'\x0c\x00'
p1676
tp1677
Rp1678
I15
tp1679
a(I606
I304
g1
(g5
S'\x0c\x00'
p1680
tp1681
Rp1682
I15
tp1683
a(I606
I601
g1
(g5
S'\x0c\x00'
p1684
tp1685
Rp1686
I15
tp1687
a(I606
I694
g1
(g5
S'\x0c\x00'
p1688
tp1689
Rp1690
I15
tp1691
a(I606
I710
g1
(g5
S'\x0c\x00'
p1692
tp1693
Rp1694
I15
tp1695
a(I606
I726
g1
(g5
S'\x0c\x00'
p1696
tp1697
Rp1698
I15
tp1699
a(I606
I742
g1
(g5
S'\x0c\x00'
p1700
tp1701
Rp1702
I15
tp1703
a(I612
I327
g1
(g5
S'\x19\x00'
p1704
tp1705
Rp1706
I31
tp1707
a(I612
I359
g1
(g5
S'\x19\x00'
p1708
tp1709
Rp1710
I31
tp1711
a(I612
I484
g1
(g5
S'\x19\x00'
p1712
tp1713
Rp1714
I31
tp1715
a(I612
I515
g1
(g5
S'\x19\x00'
p1716
tp1717
Rp1718
I31
tp1719
a(I612
I671
g1
(g5
S'\x19\x00'
p1720
tp1721
Rp1722
I31
tp1723
a(I618
I69
g1
(g5
S'\r\x00'
p1724
tp1725
Rp1726
I16
tp1727
a(I618
I85
g1
(g5
S'\r\x00'
p1728
tp1729
Rp1730
I16
tp1731
a(I618
I101
g1
(g5
S'\r\x00'
p1732
tp1733
Rp1734
I16
tp1735
a(I618
I117
g1
(g5
S'\r\x00'
p1736
tp1737
Rp1738
I16
tp1739
a(I618
I132
g1
(g5
S'\r\x00'
p1740
tp1741
Rp1742
I16
tp1743
a(I618
I148
g1
(g5
S'\r\x00'
p1744
tp1745
Rp1746
I16
tp1747
a(I618
I304
g1
(g5
S'\r\x00'
p1748
tp1749
Rp1750
I16
tp1751
a(I618
I585
g1
(g5
S'\r\x00'
p1752
tp1753
Rp1754
I16
tp1755
a(I618
I601
g1
(g5
S'\r\x00'
p1756
tp1757
Rp1758
I16
tp1759
a(I618
I742
g1
(g5
S'\r\x00'
p1760
tp1761
Rp1762
I16
tp1763
a(I625
I31
g1
(g5
S'2\x00'
p1764
tp1765
Rp1766
I62
tp1767
a(I625
I218
g1
(g5
S'2\x00'
p1768
tp1769
Rp1770
I62
tp1771
a(I631
I304
g1
(g5
S'\x0c\x00'
p1772
tp1773
Rp1774
I15
tp1775
a(I631
I351
g1
(g5
S'\x0c\x00'
p1776
tp1777
Rp1778
I15
tp1779
a(I631
I742
g1
(g5
S'\x0c\x00'
p1780
tp1781
Rp1782
I15
tp1783
a(I637
I77
g1
(g5
S'\x19\x00'
p1784
tp1785
Rp1786
I31
tp1787
a(I637
I109
g1
(g5
S'\x19\x00'
p1788
tp1789
Rp1790
I31
tp1791
a(I637
I140
g1
(g5
S'\x19\x00'
p1792
tp1793
Rp1794
I31
tp1795
a(I637
I327
g1
(g5
S'\x19\x00'
p1796
tp1797
Rp1798
I31
tp1799
a(I637
I484
g1
(g5
S'\x19\x00'
p1800
tp1801
Rp1802
I31
tp1803
a(I637
I515
g1
(g5
S'\x19\x00'
p1804
tp1805
Rp1806
I31
tp1807
a(I637
I546
g1
(g5
S'\x19\x00'
p1808
tp1809
Rp1810
I31
tp1811
a(I637
I577
g1
(g5
S'\x19\x00'
p1812
tp1813
Rp1814
I31
tp1815
a(I637
I609
g1
(g5
S'\x19\x00'
p1816
tp1817
Rp1818
I31
tp1819
a(I643
I288
g1
(g5
S'\r\x00'
p1820
tp1821
Rp1822
I16
tp1823
a(I643
I304
g1
(g5
S'\r\x00'
p1824
tp1825
Rp1826
I16
tp1827
a(I643
I351
g1
(g5
S'\r\x00'
p1828
tp1829
Rp1830
I16
tp1831
a(I643
I742
g1
(g5
S'\r\x00'
p1832
tp1833
Rp1834
I16
tp1835
a(I656
I351
g1
(g5
S'\x0c\x00'
p1836
tp1837
Rp1838
I15
tp1839
a(I656
I601
g1
(g5
S'\x0c\x00'
p1840
tp1841
Rp1842
I15
tp1843
a(I656
I617
g1
(g5
S'\x0c\x00'
p1844
tp1845
Rp1846
I15
tp1847
a(I656
I710
g1
(g5
S'\x0c\x00'
p1848
tp1849
Rp1850
I15
tp1851
a(I662
I327
g1
(g5
S'\x19\x00'
p1852
tp1853
Rp1854
I31
tp1855
a(I662
I484
g1
(g5
S'\x19\x00'
p1856
tp1857
Rp1858
I31
tp1859
a(I662
I577
g1
(g5
S'\x19\x00'
p1860
tp1861
Rp1862
I31
tp1863
a(I662
I734
g1
(g5
S'\x19\x00'
p1864
tp1865
Rp1866
I31
tp1867
a(I668
I351
g1
(g5
S'\r\x00'
p1868
tp1869
Rp1870
I16
tp1871
a(I668
I601
g1
(g5
S'\r\x00'
p1872
tp1873
Rp1874
I16
tp1875
a(I668
I694
g1
(g5
S'\r\x00'
p1876
tp1877
Rp1878
I16
tp1879
a(I668
I710
g1
(g5
S'\r\x00'
p1880
tp1881
Rp1882
I16
tp1883
a(I675
I31
g1
(g5
S'2\x00'
p1884
tp1885
Rp1886
I62
tp1887
a(I675
I93
g1
(g5
S'2\x00'
p1888
tp1889
Rp1890
I62
tp1891
a(I675
I156
g1
(g5
S'2\x00'
p1892
tp1893
Rp1894
I62
tp1895
a(I675
I218
g1
(g5
S'2\x00'
p1896
tp1897
Rp1898
I62
tp1899
a(I675
I281
g1
(g5
S'2\x00'
p1900
tp1901
Rp1902
I62
tp1903
a(I675
I531
g1
(g5
S'2\x00'
p1904
tp1905
Rp1906
I62
tp1907
a(I681
I351
g1
(g5
S'\x0c\x00'
p1908
tp1909
Rp1910
I15
tp1911
a(I681
I569
g1
(g5
S'\x0c\x00'
p1912
tp1913
Rp1914
I15
tp1915
a(I681
I679
g1
(g5
S'\x0c\x00'
p1916
tp1917
Rp1918
I15
tp1919
a(I687
I327
g1
(g5
S'\x19\x00'
p1920
tp1921
Rp1922
I31
tp1923
a(I687
I484
g1
(g5
S'\x19\x00'
p1924
tp1925
Rp1926
I31
tp1927
a(I687
I702
g1
(g5
S'\x19\x00'
p1928
tp1929
Rp1930
I31
tp1931
a(I687
I734
g1
(g5
S'\x19\x00'
p1932
tp1933
Rp1934
I31
tp1935
a(I693
I351
g1
(g5
S'\r\x00'
p1936
tp1937
Rp1938
I16
tp1939
a(I693
I569
g1
(g5
S'\r\x00'
p1940
tp1941
Rp1942
I16
tp1943
a(I693
I648
g1
(g5
S'\r\x00'
p1944
tp1945
Rp1946
I16
tp1947
a(I693
I663
g1
(g5
S'\r\x00'
p1948
tp1949
Rp1950
I16
tp1951
a(I693
I679
g1
(g5
S'\r\x00'
p1952
tp1953
Rp1954
I16
tp1955
a(I700
I875
g1
(g5
S'\xc8\x00'
p1956
tp1957
Rp1958
I250
tp1959
a(I706
I351
g1
(g5
S'\x0c\x00'
p1960
tp1961
Rp1962
I15
tp1963
a(I712
I327
g1
(g5
S'\x19\x00'
p1964
tp1965
Rp1966
I31
tp1967
a(I712
I484
g1
(g5
S'\x19\x00'
p1968
tp1969
Rp1970
I31
tp1971
a(I712
I577
g1
(g5
S'\x19\x00'
p1972
tp1973
Rp1974
I31
tp1975
a(I718
I351
g1
(g5
S'\r\x00'
p1976
tp1977
Rp1978
I16
tp1979
a(I718
I601
g1
(g5
S'\r\x00'
p1980
tp1981
Rp1982
I16
tp1983
a(I718
I617
g1
(g5
S'\r\x00'
p1984
tp1985
Rp1986
I16
tp1987
a(I725
I281
g1
(g5
S'2\x00'
p1988
tp1989
Rp1990
I62
tp1991
a(I725
I531
g1
(g5
S'2\x00'
p1992
tp1993
Rp1994
I62
tp1995
a(I731
I351
g1
(g5
S'\x0c\x00'
p1996
tp1997
Rp1998
I15
tp1999
a(I737
I327
g1
(g5
S'\x19\x00'
p2000
tp2001
Rp2002
I31
tp2003
a(I737
I484
g1
(g5
S'\x19\x00'
p2004
tp2005
Rp2006
I31
tp2007
a(I737
I577
g1
(g5
S'\x19\x00'
p2008
tp2009
Rp2010
I31
tp2011
a(I737
I609
g1
(g5
S'\x19\x00'
p2012
tp2013
Rp2014
I31
tp2015
a(I743
I351
g1
(g5
S'\r\x00'
p2016
tp2017
Rp2018
I16
tp2019
a(I750
I62
g1
(g5
S'd\x00'
p2020
tp2021
Rp2022
I125
tp2023
a(I750
I187
g1
(g5
S'd\x00'
p2024
tp2025
Rp2026
I125
tp2027
a(I750
I687
g1
(g5
S'd\x00'
p2028
tp2029
Rp2030
I125
tp2031
a(I756
I351
g1
(g5
S'\x0c\x00'
p2032
tp2033
Rp2034
I15
tp2035
a(I762
I327
g1
(g5
S'\x19\x00'
p2036
tp2037
Rp2038
I31
tp2039
a(I762
I484
g1
(g5
S'\x19\x00'
p2040
tp2041
Rp2042
I31
tp2043
a(I768
I351
g1
(g5
S'\r\x00'
p2044
tp2045
Rp2046
I16
tp2047
a(I775
I281
g1
(g5
S'2\x00'
p2048
tp2049
Rp2050
I62
tp2051
a(I775
I531
g1
(g5
S'2\x00'
p2052
tp2053
Rp2054
I62
tp2055
a(I775
I593
g1
(g5
S'2\x00'
p2056
tp2057
Rp2058
I62
tp2059
a(I781
I351
g1
(g5
S'\x0c\x00'
p2060
tp2061
Rp2062
I15
tp2063
a(I787
I327
g1
(g5
S'\x19\x00'
p2064
tp2065
Rp2066
I31
tp2067
a(I787
I484
g1
(g5
S'\x19\x00'
p2068
tp2069
Rp2070
I31
tp2071
a(I793
I351
g1
(g5
S'\r\x00'
p2072
tp2073
Rp2074
I16
tp2075
a(I316
I840
I6
I15
tp2076
a(I313
I865
I6
I15
tp2077
a(I313
I880
I6
I15
tp2078
a(I313
I895
I6
I15
tp2079
a.