(dp0
I0
c__builtin__
set
p1
((lp2
I1
aI13
atp3
Rp4
sI1
g1
((lp5
I0
aI2
atp6
Rp7
sI2
g1
((lp8
I1
aI3
atp9
Rp10
sI3
g1
((lp11
I24
aI2
aI7
atp12
Rp13
sI4
g1
((lp14
I8
aI5
atp15
Rp16
sI5
g1
((lp17
I8
aI19
aI4
aI15
atp18
Rp19
sI6
g1
((lp20
I16
aI20
atp21
Rp22
sI7
g1
((lp23
I24
aI17
aI3
atp24
Rp25
sI8
g1
((lp26
I18
aI4
aI5
atp27
Rp28
sI9
g1
((lp29
I10
aI47
atp30
Rp31
sI10
g1
((lp32
I9
aI11
aI36
aI35
atp33
Rp34
sI11
g1
((lp35
I10
aI12
aI37
aI38
atp36
Rp37
sI12
g1
((lp38
I48
aI11
aI23
atp39
Rp40
sI13
g1
((lp41
I0
aI49
aI23
atp42
Rp43
sI14
g1
((lp44
I15
aI24
aI26
aI27
aI28
aI29
atp45
Rp46
sI15
g1
((lp47
I32
aI33
aI5
aI14
aI19
aI30
aI31
atp48
Rp49
sI16
g1
((lp50
I50
aI20
aI6
atp51
Rp52
sI17
g1
((lp53
I24
aI21
aI7
atp54
Rp55
sI18
g1
((lp56
I8
aI19
aI22
atp57
Rp58
sI19
g1
((lp59
I18
aI39
aI5
aI22
aI15
atp60
Rp61
sI20
g1
((lp62
I16
aI40
aI6
atp63
Rp64
sI21
g1
((lp65
I24
aI17
aI25
atp66
Rp67
sI22
g1
((lp68
I18
aI19
aI34
atp69
Rp70
sI23
g1
((lp71
I73
aI74
aI75
aI12
aI13
aI48
aI49
aI76
atp72
Rp73
sI24
g1
((lp74
I3
aI7
aI44
aI110
aI14
aI17
aI21
aI25
aI59
atp75
Rp76
sI25
g1
((lp77
I24
aI44
aI21
atp78
Rp79
sI26
g1
((lp80
I27
aI14
atp81
Rp82
sI27
g1
((lp83
I26
aI28
aI14
atp84
Rp85
sI28
g1
((lp86
I27
aI29
aI14
atp87
Rp88
sI29
g1
((lp89
I28
aI14
aI30
atp90
Rp91
sI30
g1
((lp92
I15
aI29
aI31
atp93
Rp94
sI31
g1
((lp95
I32
aI30
aI15
atp96
Rp97
sI32
g1
((lp98
I33
aI15
aI31
atp99
Rp100
sI33
g1
((lp101
I32
aI15
aI45
aI39
atp102
Rp103
sI34
g1
((lp104
I46
aI22
aI39
atp105
Rp106
sI35
g1
((lp107
I56
aI10
aI36
aI47
atp108
Rp109
sI36
g1
((lp110
I51
aI10
aI35
aI37
atp111
Rp112
sI37
g1
((lp113
I52
aI11
aI36
aI53
aI38
atp114
Rp115
sI38
g1
((lp116
I48
aI57
aI11
aI37
atp117
Rp118
sI39
g1
((lp119
I33
aI34
aI45
aI46
aI19
aI60
atp120
Rp121
sI40
g1
((lp122
I50
aI20
aI61
atp123
Rp124
sI41
g1
((lp125
I49
aI42
aI58
atp126
Rp127
sI42
g1
((lp128
I41
aI58
aI43
atp129
Rp130
sI43
g1
((lp131
I42
aI59
aI44
atp132
Rp133
sI44
g1
((lp134
I24
aI25
aI43
aI59
atp135
Rp136
sI45
g1
((lp137
I33
aI54
aI39
atp138
Rp139
sI46
g1
((lp140
I34
aI55
aI39
atp141
Rp142
sI47
g1
((lp143
I56
aI9
aI83
aI35
atp144
Rp145
sI48
g1
((lp146
I38
aI71
aI72
aI12
aI23
aI57
atp147
Rp148
sI49
g1
((lp149
I41
aI58
aI109
aI13
aI23
atp150
Rp151
sI50
g1
((lp152
I40
aI16
aI84
aI61
atp153
Rp154
sI51
g1
((lp155
I56
aI36
atp156
Rp157
sI52
g1
((lp158
I53
aI37
atp159
Rp160
sI53
g1
((lp161
I57
aI52
aI37
aI62
atp162
Rp163
sI54
g1
((lp164
I60
aI45
aI63
atp165
Rp166
sI55
g1
((lp167
I64
aI60
aI46
atp168
Rp169
sI56
g1
((lp170
I35
aI51
aI69
aI47
atp171
Rp172
sI57
g1
((lp173
I48
aI62
aI70
aI53
aI38
atp174
Rp175
sI58
g1
((lp176
I49
aI42
aI59
aI41
atp177
Rp178
sI59
g1
((lp179
I24
aI58
aI43
aI44
aI109
atp180
Rp181
sI60
g1
((lp182
I64
aI39
aI77
aI54
aI55
aI63
atp183
Rp184
sI61
g1
((lp185
I40
aI50
aI78
atp186
Rp187
sI62
g1
((lp188
I57
aI53
aI65
atp189
Rp190
sI63
g1
((lp191
I66
aI60
aI54
atp192
Rp193
sI64
g1
((lp194
I67
aI60
aI55
atp195
Rp196
sI65
g1
((lp197
I62
aI70
aI79
atp198
Rp199
sI66
g1
((lp200
I80
aI77
aI63
atp201
Rp202
sI67
g1
((lp203
I64
aI81
aI77
atp204
Rp205
sI68
g1
((lp206
I82
aI78
atp207
Rp208
sI69
g1
((lp209
I56
aI83
aI95
atp210
Rp211
sI70
g1
((lp212
I96
aI65
aI79
aI57
aI71
atp213
Rp214
sI71
g1
((lp215
I72
aI48
aI70
aI97
atp216
Rp217
sI72
g1
((lp218
I48
aI73
aI86
aI71
atp219
Rp220
sI73
g1
((lp221
I72
aI88
aI74
aI87
aI23
atp222
Rp223
sI74
g1
((lp224
I73
aI90
aI75
aI89
aI23
atp225
Rp226
sI75
g1
((lp227
I74
aI76
aI23
atp228
Rp229
sI76
g1
((lp230
I91
aI75
aI92
aI109
aI23
atp231
Rp232
sI77
g1
((lp233
I66
aI67
aI98
aI80
aI81
aI60
atp234
Rp235
sI78
g1
((lp236
I84
aI82
aI99
aI68
aI61
atp237
Rp238
sI79
g1
((lp239
I65
aI85
aI70
atp240
Rp241
sI80
g1
((lp242
I66
aI77
aI93
atp243
Rp244
sI81
g1
((lp245
I67
aI77
aI94
atp246
Rp247
sI82
g1
((lp248
I68
aI78
atp249
Rp250
sI83
g1
((lp251
I127
aI47
aI69
aI95
atp252
Rp253
sI84
g1
((lp254
I50
aI99
aI130
aI78
atp255
Rp256
sI85
g1
((lp257
I96
aI103
aI79
atp258
Rp259
sI86
g1
((lp260
I72
aI97
atp261
Rp262
sI87
g1
((lp263
I88
aI73
atp264
Rp265
sI88
g1
((lp266
I104
aI89
aI73
aI87
atp267
Rp268
sI89
g1
((lp269
I88
aI105
aI90
aI74
atp270
Rp271
sI90
g1
((lp272
I89
aI74
atp273
Rp274
sI91
g1
((lp275
I76
aI92
atp276
Rp277
sI92
g1
((lp278
I106
aI91
aI76
aI109
atp279
Rp280
sI93
g1
((lp281
I80
aI98
aI107
atp282
Rp283
sI94
g1
((lp284
I81
aI98
aI108
atp285
Rp286
sI95
g1
((lp287
I128
aI83
aI100
aI69
atp288
Rp289
sI96
g1
((lp290
I129
aI97
aI85
aI70
aI103
atp291
Rp292
sI97
g1
((lp293
I96
aI111
aI86
aI71
atp294
Rp295
sI98
g1
((lp296
I107
aI108
aI77
aI116
aI93
aI94
atp297
Rp298
sI99
g1
((lp299
I84
aI117
aI78
atp300
Rp301
sI100
g1
((lp302
I101
aI95
atp303
Rp304
sI101
g1
((lp305
I128
aI100
aI102
atp306
Rp307
sI102
g1
((lp308
I129
aI101
aI103
atp309
Rp310
sI103
g1
((lp311
I96
aI129
aI85
aI102
atp312
Rp313
sI104
g1
((lp314
I88
aI105
atp315
Rp316
sI105
g1
((lp317
I104
aI89
aI112
atp318
Rp319
sI106
g1
((lp320
I113
aI92
aI109
atp321
Rp322
sI107
g1
((lp323
I98
aI114
aI93
atp324
Rp325
sI108
g1
((lp326
I98
aI115
aI94
atp327
Rp328
sI109
g1
((lp329
I113
aI177
aI106
aI76
aI110
aI49
aI59
aI92
atp330
Rp331
sI110
g1
((lp332
I132
aI109
aI142
aI141
aI144
aI118
aI24
atp333
Rp334
sI111
g1
((lp335
I97
aI129
atp336
Rp337
sI112
g1
((lp338
I105
atp339
Rp340
sI113
g1
((lp341
I106
aI109
atp342
Rp343
sI114
g1
((lp344
I107
aI116
aI125
atp345
Rp346
sI115
g1
((lp347
I116
aI108
aI126
atp348
Rp349
sI116
g1
((lp350
I98
aI136
aI114
aI115
aI125
aI126
atp351
Rp352
sI117
g1
((lp353
I137
aI130
aI99
atp354
Rp355
sI118
g1
((lp356
I132
aI110
aI119
atp357
Rp358
sI119
g1
((lp359
I120
aI132
aI118
atp360
Rp361
sI120
g1
((lp362
I121
aI133
aI119
atp363
Rp364
sI121
g1
((lp365
I120
aI122
aI133
atp366
Rp367
sI122
g1
((lp368
I121
aI123
aI134
atp369
Rp370
sI123
g1
((lp371
I122
aI124
aI134
atp372
Rp373
sI124
g1
((lp374
I123
aI125
aI135
atp375
Rp376
sI125
g1
((lp377
I116
aI114
aI124
aI135
atp378
Rp379
sI126
g1
((lp380
I115
aI116
aI131
atp381
Rp382
sI127
g1
((lp383
I128
aI176
aI83
atp384
Rp385
sI128
g1
((lp386
I176
aI129
aI95
aI101
aI127
atp387
Rp388
sI129
g1
((lp389
I128
aI96
aI102
aI103
aI111
aI158
atp390
Rp391
sI130
g1
((lp392
I137
aI84
aI117
aI159
atp393
Rp394
sI131
g1
((lp395
I136
aI138
aI126
atp396
Rp397
sI132
g1
((lp398
I145
aI118
aI133
aI110
aI119
atp399
Rp400
sI133
g1
((lp401
I120
aI121
aI146
aI132
aI134
atp402
Rp403
sI134
g1
((lp404
I122
aI123
aI147
aI133
aI135
atp405
Rp406
sI135
g1
((lp407
I136
aI148
aI124
aI125
aI134
atp408
Rp409
sI136
g1
((lp410
I138
aI131
aI116
aI149
aI135
atp411
Rp412
sI137
g1
((lp413
I130
aI117
aI150
atp414
Rp415
sI138
g1
((lp416
I136
aI131
aI143
atp417
Rp418
sI139
g1
((lp419
I158
atp420
Rp421
sI140
g1
((lp422
I177
aI154
atp423
Rp424
sI141
g1
((lp425
I144
aI155
aI110
atp426
Rp427
sI142
g1
((lp428
I145
aI156
aI110
atp429
Rp430
sI143
g1
((lp431
I138
aI149
aI157
atp432
Rp433
sI144
g1
((lp434
I164
aI165
aI141
aI110
aI177
aI155
atp435
Rp436
sI145
g1
((lp437
I156
aI146
aI132
aI142
atp438
Rp439
sI146
g1
((lp440
I145
aI147
aI133
atp441
Rp442
sI147
g1
((lp443
I146
aI148
aI134
atp444
Rp445
sI148
g1
((lp446
I168
aI147
aI149
aI135
atp447
Rp448
sI149
g1
((lp449
I136
aI170
aI148
aI157
aI143
atp450
Rp451
sI150
g1
((lp452
I137
aI171
aI159
atp453
Rp454
sI151
g1
((lp455
I152
aI160
aI158
atp456
Rp457
sI152
g1
((lp458
I161
aI151
atp459
Rp460
sI153
g1
((lp461
I154
aI162
atp462
Rp463
sI154
g1
((lp464
I153
aI163
aI140
aI177
atp465
Rp466
sI155
g1
((lp467
I144
aI141
aI166
atp468
Rp469
sI156
g1
((lp470
I145
aI142
aI167
atp471
Rp472
sI157
g1
((lp473
I169
aI149
aI143
atp474
Rp475
sI158
g1
((lp476
I160
aI129
aI139
aI172
aI176
aI151
aI184
atp477
Rp478
sI159
g1
((lp479
I185
aI130
aI171
aI150
atp480
Rp481
sI160
g1
((lp482
I161
aI158
aI151
atp483
Rp484
sI161
g1
((lp485
I160
aI152
atp486
Rp487
sI162
g1
((lp488
I153
aI163
atp489
Rp490
sI163
g1
((lp491
I177
aI162
aI154
aI173
atp492
Rp493
sI164
g1
((lp494
I144
aI177
aI165
atp495
Rp496
sI165
g1
((lp497
I144
aI164
aI166
atp498
Rp499
sI166
g1
((lp500
I155
aI165
atp501
Rp502
sI167
g1
((lp503
I156
atp504
Rp505
sI168
g1
((lp506
I170
aI148
aI174
atp507
Rp508
sI169
g1
((lp509
I170
aI157
aI175
atp510
Rp511
sI170
g1
((lp512
I168
aI169
aI174
aI175
aI180
aI149
atp513
Rp514
sI171
g1
((lp515
I181
aI150
aI159
atp516
Rp517
sI172
g1
((lp518
I158
atp519
Rp520
sI173
g1
((lp521
I177
aI163
atp522
Rp523
sI174
g1
((lp524
I168
aI170
aI178
atp525
Rp526
sI175
g1
((lp527
I169
aI170
aI179
atp528
Rp529
sI176
g1
((lp530
I128
aI207
aI208
aI209
aI210
aI184
aI158
aI127
atp531
Rp532
sI177
g1
((lp533
I193
aI163
aI164
aI140
aI173
aI109
aI144
aI227
aI228
aI154
atp534
Rp535
sI178
g1
((lp536
I180
aI182
aI174
atp537
Rp538
sI179
g1
((lp539
I183
aI180
aI175
atp540
Rp541
sI180
g1
((lp542
I170
aI178
aI179
aI182
aI183
aI188
atp543
Rp544
sI181
g1
((lp545
I185
aI171
aI189
atp546
Rp547
sI182
g1
((lp548
I178
aI180
aI186
atp549
Rp550
sI183
g1
((lp551
I179
aI180
aI187
atp552
Rp553
sI184
g1
((lp554
I176
aI226
aI158
aI190
atp555
Rp556
sI185
g1
((lp557
I203
aI204
aI205
aI206
aI181
aI189
aI159
atp558
Rp559
sI186
g1
((lp560
I194
aI188
aI182
atp561
Rp562
sI187
g1
((lp563
I195
aI188
aI183
atp564
Rp565
sI188
g1
((lp566
I194
aI195
aI180
aI215
aI186
aI187
atp567
Rp568
sI189
g1
((lp569
I185
aI202
aI181
aI201
atp570
Rp571
sI190
g1
((lp572
I184
aI211
atp573
Rp574
sI191
g1
((lp575
I192
aI196
atp576
Rp577
sI192
g1
((lp578
I212
aI191
atp579
Rp580
sI193
g1
((lp581
I177
aI213
atp582
Rp583
sI194
g1
((lp584
I186
aI188
aI199
atp585
Rp586
sI195
g1
((lp587
I200
aI187
aI188
atp588
Rp589
sI196
g1
((lp590
I218
aI212
aI191
atp591
Rp592
sI197
g1
((lp593
I219
aI214
atp594
Rp595
sI198
g1
((lp596
I220
atp597
Rp598
sI199
g1
((lp599
I194
aI221
aI215
atp600
Rp601
sI200
g1
((lp602
I195
aI222
aI215
atp603
Rp604
sI201
g1
((lp605
I202
aI189
aI519
atp606
Rp607
sI202
g1
((lp608
I201
aI203
aI189
atp609
Rp610
sI203
g1
((lp611
I185
aI202
aI204
atp612
Rp613
sI204
g1
((lp614
I185
aI203
aI205
atp615
Rp616
sI205
g1
((lp617
I185
aI204
aI206
atp618
Rp619
sI206
g1
((lp620
I185
aI205
atp621
Rp622
sI207
g1
((lp623
I208
aI176
atp624
Rp625
sI208
g1
((lp626
I176
aI209
aI207
atp627
Rp628
sI209
g1
((lp629
I208
aI176
aI210
atp630
Rp631
sI210
g1
((lp632
I176
aI209
aI226
aI232
atp633
Rp634
sI211
g1
((lp635
I216
aI233
aI226
aI190
atp636
Rp637
sI212
g1
((lp638
I192
aI236
aI218
aI196
atp639
Rp640
sI213
g1
((lp641
I193
aI227
aI238
atp642
Rp643
sI214
g1
((lp644
I219
aI228
aI197
aI239
atp645
Rp646
sI215
g1
((lp647
I199
aI200
aI244
aI188
aI221
aI222
atp648
Rp649
sI216
g1
((lp650
I234
aI211
atp651
Rp652
sI217
g1
((lp653
I218
aI235
atp654
Rp655
sI218
g1
((lp656
I217
aI235
aI212
aI196
atp657
Rp658
sI219
g1
((lp659
I197
aI214
aI229
atp660
Rp661
sI220
g1
((lp662
I230
aI198
atp663
Rp664
sI221
g1
((lp665
I199
aI243
aI215
atp666
Rp667
sI222
g1
((lp668
I200
aI223
aI245
aI215
atp669
Rp670
sI223
g1
((lp671
I224
aI245
aI222
atp672
Rp673
sI224
g1
((lp674
I225
aI231
aI223
atp675
Rp676
sI225
g1
((lp677
I224
aI517
atp678
Rp679
sI226
g1
((lp680
I232
aI233
aI210
aI211
aI265
aI184
atp681
Rp682
sI227
g1
((lp683
I177
aI228
aI213
aI238
aI269
atp684
Rp685
sI228
g1
((lp686
I259
aI260
aI239
aI177
aI227
aI214
atp687
Rp688
sI229
g1
((lp689
I219
aI246
aI239
atp690
Rp691
sI230
g1
((lp692
I240
aI251
aI220
atp693
Rp694
sI231
g1
((lp695
I224
aI252
aI245
atp696
Rp697
sI232
g1
((lp698
I226
aI258
aI210
atp699
Rp700
sI233
g1
((lp701
I266
aI226
aI211
aI234
atp702
Rp703
sI234
g1
((lp704
I216
aI233
aI266
aI235
atp705
Rp706
sI235
g1
((lp707
I217
aI234
aI267
aI236
aI218
atp708
Rp709
sI236
g1
((lp710
I267
aI235
aI212
aI237
atp711
Rp712
sI237
g1
((lp713
I268
aI236
aI238
atp714
Rp715
sI238
g1
((lp716
I227
aI268
aI237
aI213
atp717
Rp718
sI239
g1
((lp719
I246
aI228
aI229
aI214
aI253
aI254
atp720
Rp721
sI240
g1
((lp722
I241
aI251
aI270
aI230
atp723
Rp724
sI241
g1
((lp725
I240
aI242
aI270
atp726
Rp727
sI242
g1
((lp728
I241
aI243
aI271
atp729
Rp730
sI243
g1
((lp731
I242
aI244
aI221
aI271
atp732
Rp733
sI244
g1
((lp734
I272
aI243
aI245
aI215
atp735
Rp736
sI245
g1
((lp737
I231
aI272
aI244
aI252
aI222
aI223
atp738
Rp739
sI246
g1
((lp740
I247
aI255
aI229
aI239
atp741
Rp742
sI247
g1
((lp743
I248
aI256
aI246
atp744
Rp745
sI248
g1
((lp746
I249
aI261
aI247
atp747
Rp748
sI249
g1
((lp749
I248
aI250
aI261
atp750
Rp751
sI250
g1
((lp752
I249
aI251
aI262
atp753
Rp754
sI251
g1
((lp755
I240
aI250
aI262
aI230
atp756
Rp757
sI252
g1
((lp758
I257
aI245
aI231
atp759
Rp760
sI253
g1
((lp761
I263
aI260
aI254
aI239
atp762
Rp763
sI254
g1
((lp764
I239
aI253
aI255
atp765
Rp766
sI255
g1
((lp767
I256
aI246
aI254
atp768
Rp769
sI256
g1
((lp770
I247
aI261
aI255
atp771
Rp772
sI257
g1
((lp773
I272
aI252
atp774
Rp775
sI258
g1
((lp776
I232
aI265
aI278
atp777
Rp778
sI259
g1
((lp779
I228
aI260
aI269
aI279
atp780
Rp781
sI260
g1
((lp782
I259
aI228
aI263
aI273
aI274
aI253
atp783
Rp784
sI261
g1
((lp785
I256
aI248
aI262
aI249
atp786
Rp787
sI262
g1
((lp788
I261
aI270
aI275
aI276
aI250
aI251
atp789
Rp790
sI263
g1
((lp791
I260
aI253
atp792
Rp793
sI264
g1
((lp794
I272
aI277
atp795
Rp796
sI265
g1
((lp797
I226
aI258
aI266
aI278
aI297
atp798
Rp799
sI266
g1
((lp800
I265
aI234
aI267
aI298
aI233
atp801
Rp802
sI267
g1
((lp803
I236
aI266
aI235
aI268
aI299
atp804
Rp805
sI268
g1
((lp806
I267
aI300
aI269
aI238
aI237
atp807
Rp808
sI269
g1
((lp809
I301
aI259
aI268
aI227
aI279
atp810
Rp811
sI270
g1
((lp812
I262
aI271
aI240
aI241
aI276
aI281
aI314
atp813
Rp814
sI271
g1
((lp815
I272
aI242
aI243
aI314
aI270
atp816
Rp817
sI272
g1
((lp818
I257
aI264
aI302
aI271
aI244
aI277
aI282
aI245
atp819
Rp820
sI273
g1
((lp821
I280
aI274
aI260
aI279
atp822
Rp823
sI274
g1
((lp824
I273
aI260
atp825
Rp826
sI275
g1
((lp827
I276
aI262
atp828
Rp829
sI276
g1
((lp830
I281
aI275
aI262
aI270
atp831
Rp832
sI277
g1
((lp833
I272
aI264
atp834
Rp835
sI278
g1
((lp836
I265
aI258
aI284
atp837
Rp838
sI279
g1
((lp839
I280
aI273
aI259
aI269
aI285
atp840
Rp841
sI280
g1
((lp842
I273
aI279
atp843
Rp844
sI281
g1
((lp845
I283
aI276
aI270
atp846
Rp847
sI282
g1
((lp848
I272
aI286
atp849
Rp850
sI283
g1
((lp851
I281
aI314
atp852
Rp853
sI284
g1
((lp854
I297
aI306
aI278
atp855
Rp856
sI285
g1
((lp857
I307
aI301
aI279
atp858
Rp859
sI286
g1
((lp860
I282
aI308
aI302
aI287
atp861
Rp862
sI287
g1
((lp863
I288
aI309
aI286
atp864
Rp865
sI288
g1
((lp866
I289
aI309
aI287
atp867
Rp868
sI289
g1
((lp869
I288
aI290
aI310
atp870
Rp871
sI290
g1
((lp872
I289
aI291
aI310
atp873
Rp874
sI291
g1
((lp875
I290
aI292
aI311
atp876
Rp877
sI292
g1
((lp878
I291
aI293
aI311
atp879
Rp880
sI293
g1
((lp881
I312
aI292
aI294
atp882
Rp883
sI294
g1
((lp884
I312
aI293
aI295
atp885
Rp886
sI295
g1
((lp887
I296
aI313
aI294
atp888
Rp889
sI296
g1
((lp890
I313
aI295
atp891
Rp892
sI297
g1
((lp893
I265
aI298
aI306
aI316
aI315
aI284
atp894
Rp895
sI298
g1
((lp896
I297
aI266
aI299
aI324
atp897
Rp898
sI299
g1
((lp899
I298
aI267
aI300
aI317
aI318
atp900
Rp901
sI300
g1
((lp902
I299
aI268
aI301
aI325
atp903
Rp904
sI301
g1
((lp905
I307
aI300
aI285
aI326
aI269
atp906
Rp907
sI302
g1
((lp908
I272
aI314
aI308
aI286
aI327
atp909
Rp910
sI303
g1
((lp911
I304
aI322
atp912
Rp913
sI304
g1
((lp914
I305
aI322
aI303
atp915
Rp916
sI305
g1
((lp917
I304
aI306
aI323
atp918
Rp919
sI306
g1
((lp920
I305
aI323
aI284
aI297
atp921
Rp922
sI307
g1
((lp923
I319
aI301
aI285
atp924
Rp925
sI308
g1
((lp926
I320
aI286
aI309
aI302
atp927
Rp928
sI309
g1
((lp929
I288
aI321
aI308
aI310
aI287
atp930
Rp931
sI310
g1
((lp932
I328
aI289
aI290
aI309
aI311
atp933
Rp934
sI311
g1
((lp935
I312
aI328
aI291
aI292
aI310
atp936
Rp937
sI312
g1
((lp938
I313
aI329
aI293
aI294
aI311
atp939
Rp940
sI313
g1
((lp941
I312
aI296
aI329
aI295
atp942
Rp943
sI314
g1
((lp944
I352
aI353
aI327
aI331
aI270
aI271
aI370
aI340
aI302
aI283
atp945
Rp946
sI315
g1
((lp947
I336
aI297
aI323
aI316
atp948
Rp949
sI316
g1
((lp950
I297
aI315
aI324
atp951
Rp952
sI317
g1
((lp953
I299
aI324
aI318
atp954
Rp955
sI318
g1
((lp956
I330
aI299
aI317
aI325
atp957
Rp958
sI319
g1
((lp959
I337
aI307
aI326
atp960
Rp961
sI320
g1
((lp962
I332
aI321
aI308
aI333
aI327
atp963
Rp964
sI321
g1
((lp965
I320
aI328
aI309
aI334
aI335
atp966
Rp967
sI322
g1
((lp968
I304
aI323
aI365
aI303
atp969
Rp970
sI323
g1
((lp971
I322
aI336
aI305
aI306
aI342
aI343
aI344
aI345
aI315
atp972
Rp973
sI324
g1
((lp974
I298
aI316
aI317
aI366
atp975
Rp976
sI325
g1
((lp977
I326
aI330
aI300
aI367
aI338
aI318
atp978
Rp979
sI326
g1
((lp980
I368
aI337
aI301
aI325
aI319
atp981
Rp982
sI327
g1
((lp983
I320
aI354
aI332
aI302
aI314
aI349
atp984
Rp985
sI328
g1
((lp986
I321
aI386
aI329
aI335
aI341
aI310
aI311
atp987
Rp988
sI329
g1
((lp989
I328
aI312
aI386
aI313
atp990
Rp991
sI330
g1
((lp992
I338
aI325
aI318
atp993
Rp994
sI331
g1
((lp995
I314
aI340
atp996
Rp997
sI332
g1
((lp998
I320
aI333
aI327
atp999
Rp1000
sI333
g1
((lp1001
I320
aI332
aI334
atp1002
Rp1003
sI334
g1
((lp1004
I321
aI333
aI335
atp1005
Rp1006
sI335
g1
((lp1007
I328
aI321
aI341
aI334
atp1008
Rp1009
sI336
g1
((lp1010
I347
aI315
aI346
aI323
atp1011
Rp1012
sI337
g1
((lp1013
I369
aI339
aI326
aI319
atp1014
Rp1015
sI338
g1
((lp1016
I330
aI348
aI325
atp1017
Rp1018
sI339
g1
((lp1019
I337
atp1020
Rp1021
sI340
g1
((lp1022
I314
aI331
aI351
atp1023
Rp1024
sI341
g1
((lp1025
I328
aI350
aI335
atp1026
Rp1027
sI342
g1
((lp1028
I323
aI365
aI343
atp1029
Rp1030
sI343
g1
((lp1031
I344
aI323
aI342
atp1032
Rp1033
sI344
g1
((lp1034
I345
aI323
aI343
atp1035
Rp1036
sI345
g1
((lp1037
I344
aI346
aI323
atp1038
Rp1039
sI346
g1
((lp1040
I336
aI345
aI347
atp1041
Rp1042
sI347
g1
((lp1043
I336
aI346
atp1044
Rp1045
sI348
g1
((lp1046
I338
aI356
aI367
atp1047
Rp1048
sI349
g1
((lp1049
I354
aI363
aI327
atp1050
Rp1051
sI350
g1
((lp1052
I386
aI364
aI341
atp1053
Rp1054
sI351
g1
((lp1055
I352
aI362
aI379
aI340
atp1056
Rp1057
sI352
g1
((lp1058
I353
aI314
aI373
aI351
atp1059
Rp1060
sI353
g1
((lp1061
I352
aI370
aI314
atp1062
Rp1063
sI354
g1
((lp1064
I370
aI363
aI380
aI349
aI327
atp1065
Rp1066
sI355
g1
((lp1067
I371
aI365
atp1068
Rp1069
sI356
g1
((lp1070
I372
aI348
aI367
atp1071
Rp1072
sI357
g1
((lp1073
I376
aI369
aI358
atp1074
Rp1075
sI358
g1
((lp1076
I376
aI357
aI359
atp1077
Rp1078
sI359
g1
((lp1079
I360
aI377
aI358
atp1080
Rp1081
sI360
g1
((lp1082
I361
aI377
aI359
atp1083
Rp1084
sI361
g1
((lp1085
I360
aI362
aI378
atp1086
Rp1087
sI362
g1
((lp1088
I361
aI378
aI351
atp1089
Rp1090
sI363
g1
((lp1091
I354
aI349
aI374
atp1092
Rp1093
sI364
g1
((lp1094
I386
aI350
aI375
atp1095
Rp1096
sI365
g1
((lp1097
I322
aI355
aI399
aI371
aI342
aI381
atp1098
Rp1099
sI366
g1
((lp1100
I324
atp1101
Rp1102
sI367
g1
((lp1103
I400
aI356
aI325
aI368
aI372
aI348
aI382
atp1104
Rp1105
sI368
g1
((lp1106
I369
aI326
aI367
atp1107
Rp1108
sI369
g1
((lp1109
I368
aI376
aI392
aI357
aI337
atp1110
Rp1111
sI370
g1
((lp1112
I353
aI354
aI380
aI314
aI401
atp1113
Rp1114
sI371
g1
((lp1115
I355
aI365
atp1116
Rp1117
sI372
g1
((lp1118
I356
aI382
aI367
atp1119
Rp1120
sI373
g1
((lp1121
I352
aI379
atp1122
Rp1123
sI374
g1
((lp1124
I363
aI380
aI383
atp1125
Rp1126
sI375
g1
((lp1127
I385
aI386
aI364
atp1128
Rp1129
sI376
g1
((lp1130
I393
aI369
aI357
aI358
aI377
atp1131
Rp1132
sI377
g1
((lp1133
I376
aI360
aI378
aI394
aI359
atp1134
Rp1135
sI378
g1
((lp1136
I389
aI390
aI361
aI362
aI377
aI379
atp1137
Rp1138
sI379
g1
((lp1139
I378
aI391
aI373
aI351
atp1140
Rp1141
sI380
g1
((lp1142
I370
aI402
aI354
aI374
aI383
atp1143
Rp1144
sI381
g1
((lp1145
I387
aI365
atp1146
Rp1147
sI382
g1
((lp1148
I388
aI372
aI367
atp1149
Rp1150
sI383
g1
((lp1151
I384
aI380
aI374
atp1152
Rp1153
sI384
g1
((lp1154
I402
aI383
atp1155
Rp1156
sI385
g1
((lp1157
I386
aI403
aI375
atp1158
Rp1159
sI386
g1
((lp1160
I385
aI487
aI328
aI329
aI364
aI403
aI375
aI350
atp1161
Rp1162
sI387
g1
((lp1163
I381
aI399
atp1164
Rp1165
sI388
g1
((lp1166
I400
aI396
aI382
atp1167
Rp1168
sI389
g1
((lp1169
I378
aI394
aI390
aI397
atp1170
Rp1171
sI390
g1
((lp1172
I378
aI389
aI391
atp1173
Rp1174
sI391
g1
((lp1175
I379
aI390
atp1176
Rp1177
sI392
g1
((lp1178
I393
aI411
aI369
atp1179
Rp1180
sI393
g1
((lp1181
I392
aI376
aI394
aI412
atp1182
Rp1183
sI394
g1
((lp1184
I389
aI393
aI397
aI406
aI407
aI377
atp1185
Rp1186
sI395
g1
((lp1187
I404
aI399
atp1188
Rp1189
sI396
g1
((lp1190
I400
aI388
aI405
atp1191
Rp1192
sI397
g1
((lp1193
I394
aI389
atp1194
Rp1195
sI398
g1
((lp1196
I401
aI413
atp1197
Rp1198
sI399
g1
((lp1199
I387
aI395
aI365
aI404
aI439
aI414
atp1200
Rp1201
sI400
g1
((lp1202
I388
aI424
aI425
aI396
aI367
aI405
aI415
atp1203
Rp1204
sI401
g1
((lp1205
I420
aI421
aI422
aI423
aI370
aI398
aI402
aI413
atp1206
Rp1207
sI402
g1
((lp1208
I384
aI401
aI403
aI380
aI487
atp1209
Rp1210
sI403
g1
((lp1211
I385
aI402
aI386
aI487
atp1212
Rp1213
sI404
g1
((lp1214
I395
aI399
atp1215
Rp1216
sI405
g1
((lp1217
I400
aI396
aI415
atp1218
Rp1219
sI406
g1
((lp1220
I394
aI412
aI407
atp1221
Rp1222
sI407
g1
((lp1223
I394
aI406
atp1224
Rp1225
sI408
g1
((lp1226
I416
aI413
atp1227
Rp1228
sI409
g1
((lp1229
I440
aI410
atp1230
Rp1231
sI410
g1
((lp1232
I440
aI409
atp1233
Rp1234
sI411
g1
((lp1235
I392
aI426
aI412
atp1236
Rp1237
sI412
g1
((lp1238
I393
aI411
aI427
aI406
atp1239
Rp1240
sI413
g1
((lp1241
I408
aI401
aI416
aI428
aI398
atp1242
Rp1243
sI414
g1
((lp1244
I417
aI399
atp1245
Rp1246
sI415
g1
((lp1247
I400
aI418
aI405
atp1248
Rp1249
sI416
g1
((lp1250
I408
aI413
atp1251
Rp1252
sI417
g1
((lp1253
I414
aI439
atp1254
Rp1255
sI418
g1
((lp1256
I424
aI435
aI415
atp1257
Rp1258
sI419
g1
((lp1259
I437
atp1260
Rp1261
sI420
g1
((lp1262
I401
aI428
aI421
atp1263
Rp1264
sI421
g1
((lp1265
I401
aI420
aI422
atp1266
Rp1267
sI422
g1
((lp1268
I401
aI421
aI423
atp1269
Rp1270
sI423
g1
((lp1271
I401
aI438
aI422
aI487
atp1272
Rp1273
sI424
g1
((lp1274
I400
aI425
aI418
aI435
aI447
atp1275
Rp1276
sI425
g1
((lp1277
I424
aI400
aI442
atp1278
Rp1279
sI426
g1
((lp1280
I448
aI427
aI411
atp1281
Rp1282
sI427
g1
((lp1283
I449
aI426
aI412
atp1284
Rp1285
sI428
g1
((lp1286
I420
aI413
atp1287
Rp1288
sI429
g1
((lp1289
I444
aI430
aI439
atp1290
Rp1291
sI430
g1
((lp1292
I444
aI429
aI431
atp1293
Rp1294
sI431
g1
((lp1295
I432
aI445
aI430
atp1296
Rp1297
sI432
g1
((lp1298
I433
aI445
aI431
atp1299
Rp1300
sI433
g1
((lp1301
I432
aI434
aI446
atp1302
Rp1303
sI434
g1
((lp1304
I433
aI446
atp1305
Rp1306
sI435
g1
((lp1307
I424
aI441
aI418
atp1308
Rp1309
sI436
g1
((lp1310
I451
aI437
atp1311
Rp1312
sI437
g1
((lp1313
I452
aI419
aI436
atp1314
Rp1315
sI438
g1
((lp1316
I423
aI443
aI487
atp1317
Rp1318
sI439
g1
((lp1319
I417
aI469
aI444
aI429
aI399
atp1320
Rp1321
sI440
g1
((lp1322
I472
aI409
aI410
atp1323
Rp1324
sI441
g1
((lp1325
I435
aI454
aI447
atp1326
Rp1327
sI442
g1
((lp1328
I425
aI455
aI447
atp1329
Rp1330
sI443
g1
((lp1331
I456
aI438
aI487
atp1332
Rp1333
sI444
g1
((lp1334
I470
aI429
aI445
aI430
aI439
atp1335
Rp1336
sI445
g1
((lp1337
I432
aI444
aI470
aI446
aI431
atp1338
Rp1339
sI446
g1
((lp1340
I433
aI434
aI445
aI471
atp1341
Rp1342
sI447
g1
((lp1343
I454
aI455
aI424
aI461
aI441
aI442
atp1344
Rp1345
sI448
g1
((lp1346
I449
aI426
aI462
atp1347
Rp1348
sI449
g1
((lp1349
I448
aI450
aI427
aI474
atp1350
Rp1351
sI450
g1
((lp1352
I449
aI474
aI451
atp1353
Rp1354
sI451
g1
((lp1355
I436
aI450
aI452
aI463
atp1356
Rp1357
sI452
g1
((lp1358
I458
aI451
aI437
aI459
atp1359
Rp1360
sI453
g1
((lp1361
I473
aI454
atp1362
Rp1363
sI454
g1
((lp1364
I441
aI473
aI453
aI447
atp1365
Rp1366
sI455
g1
((lp1367
I457
aI442
aI447
atp1368
Rp1369
sI456
g1
((lp1370
I464
aI443
aI487
atp1371
Rp1372
sI457
g1
((lp1373
I465
aI461
aI455
atp1374
Rp1375
sI458
g1
((lp1376
I466
aI459
aI452
aI463
atp1377
Rp1378
sI459
g1
((lp1379
I458
aI452
atp1380
Rp1381
sI460
g1
((lp1382
I464
aI468
atp1383
Rp1384
sI461
g1
((lp1385
I457
aI473
aI447
aI478
aI465
atp1386
Rp1387
sI462
g1
((lp1388
I448
aI474
aI479
atp1389
Rp1390
sI463
g1
((lp1391
I474
aI458
aI451
aI476
aI466
atp1392
Rp1393
sI464
g1
((lp1394
I456
aI468
aI481
aI460
aI487
atp1395
Rp1396
sI465
g1
((lp1397
I457
aI475
aI461
atp1398
Rp1399
sI466
g1
((lp1400
I458
aI463
atp1401
Rp1402
sI467
g1
((lp1403
I480
aI468
atp1404
Rp1405
sI468
g1
((lp1406
I464
aI480
aI467
aI460
atp1407
Rp1408
sI469
g1
((lp1409
I503
aI470
aI439
atp1410
Rp1411
sI470
g1
((lp1412
I445
aI503
aI444
aI469
aI471
atp1413
Rp1414
sI471
g1
((lp1415
I472
aI504
aI446
aI470
atp1416
Rp1417
sI472
g1
((lp1418
I440
aI473
aI504
aI471
atp1419
Rp1420
sI473
g1
((lp1421
I453
aI454
aI461
aI495
aI472
aI478
atp1422
Rp1423
sI474
g1
((lp1424
I449
aI450
aI483
aI462
aI463
aI496
aI476
aI479
atp1425
Rp1426
sI475
g1
((lp1427
I465
aI482
aI478
atp1428
Rp1429
sI476
g1
((lp1430
I474
aI463
atp1431
Rp1432
sI477
g1
((lp1433
I480
aI486
atp1434
Rp1435
sI478
g1
((lp1436
I473
aI482
aI475
aI461
aI489
atp1437
Rp1438
sI479
g1
((lp1439
I474
aI490
aI462
atp1440
Rp1441
sI480
g1
((lp1442
I481
aI486
aI467
aI468
aI505
aI477
atp1443
Rp1444
sI481
g1
((lp1445
I480
aI464
aI505
aI487
atp1446
Rp1447
sI482
g1
((lp1448
I488
aI475
aI478
atp1449
Rp1450
sI483
g1
((lp1451
I474
aI491
atp1452
Rp1453
sI484
g1
((lp1454
I505
aI485
atp1455
Rp1456
sI485
g1
((lp1457
I505
aI484
aI486
atp1458
Rp1459
sI486
g1
((lp1460
I480
aI505
aI485
aI477
atp1461
Rp1462
sI487
g1
((lp1463
I481
aI386
aI423
aI456
aI464
aI402
aI403
aI438
aI505
aI443
atp1464
Rp1465
sI488
g1
((lp1466
I489
aI482
aI492
atp1467
Rp1468
sI489
g1
((lp1469
I488
aI498
aI492
aI478
aI495
atp1470
Rp1471
sI490
g1
((lp1472
I496
aI499
aI479
atp1473
Rp1474
sI491
g1
((lp1475
I496
aI483
aI500
aI493
atp1476
Rp1477
sI492
g1
((lp1478
I488
aI489
aI497
atp1479
Rp1480
sI493
g1
((lp1481
I491
aI501
aI494
atp1482
Rp1483
sI494
g1
((lp1484
I505
aI493
aI501
atp1485
Rp1486
sI495
g1
((lp1487
I504
aI489
aI498
aI510
aI473
atp1488
Rp1489
sI496
g1
((lp1490
I490
aI491
aI499
aI500
aI474
aI511
atp1491
Rp1492
sI497
g1
((lp1493
I498
aI492
aI502
atp1494
Rp1495
sI498
g1
((lp1496
I497
aI489
aI507
aI502
aI495
atp1497
Rp1498
sI499
g1
((lp1499
I496
aI490
aI508
atp1500
Rp1501
sI500
g1
((lp1502
I496
aI512
aI491
aI501
atp1503
Rp1504
sI501
g1
((lp1505
I512
aI505
aI500
aI493
aI494
atp1506
Rp1507
sI502
g1
((lp1508
I497
aI498
aI506
atp1509
Rp1510
sI503
g1
((lp1511
I504
aI469
aI470
atp1512
Rp1513
sI504
g1
((lp1514
I472
aI495
aI471
aI510
aI503
atp1515
Rp1516
sI505
g1
((lp1517
I480
aI481
aI484
aI485
aI486
aI487
aI494
aI501
aI512
atp1518
Rp1519
sI506
g1
((lp1520
I507
aI509
aI502
atp1521
Rp1522
sI507
g1
((lp1523
I498
aI506
aI514
aI509
aI510
atp1524
Rp1525
sI508
g1
((lp1526
I515
aI499
aI511
atp1527
Rp1528
sI509
g1
((lp1529
I513
aI506
aI507
atp1530
Rp1531
sI510
g1
((lp1532
I504
aI514
aI507
aI495
atp1533
Rp1534
sI511
g1
((lp1535
I512
aI496
aI515
aI508
atp1536
Rp1537
sI512
g1
((lp1538
I505
aI500
aI501
aI511
atp1539
Rp1540
sI513
g1
((lp1541
I514
aI516
aI509
atp1542
Rp1543
sI514
g1
((lp1544
I513
aI507
aI516
aI510
atp1545
Rp1546
sI515
g1
((lp1547
I508
aI511
atp1548
Rp1549
sI516
g1
((lp1550
I513
aI514
atp1551
Rp1552
sI517
g1
((lp1553
I225
aI518
atp1554
Rp1555
sI518
g1
((lp1556
I517
aI519
atp1557
Rp1558
sI519
g1
((lp1559
I520
aI518
atp1560
Rp1561
sI520
g1
((lp1562
I201
aI519
atp1563
Rp1564
s.