(dp0
I0
c__builtin__
set
p1
((lp2
I1
aI5
atp3
Rp4
sI1
g1
((lp5
I0
aI2
atp6
Rp7
sI2
g1
((lp8
I1
aI3
atp9
Rp10
sI3
g1
((lp11
I8
aI2
aI6
atp12
Rp13
sI4
g1
((lp14
I9
aI7
atp15
Rp16
sI5
g1
((lp17
I0
aI11
atp18
Rp19
sI6
g1
((lp20
I8
aI3
aI46
aI15
atp21
Rp22
sI7
g1
((lp23
I16
aI9
aI4
aI12
atp24
Rp25
sI8
g1
((lp26
I3
aI6
atp27
Rp28
sI9
g1
((lp29
I4
aI14
aI7
atp30
Rp31
sI10
g1
((lp32
I34
aI11
aI45
atp33
Rp34
sI11
g1
((lp35
I25
aI10
aI5
aI29
atp36
Rp37
sI12
g1
((lp38
I16
aI35
aI23
aI7
atp39
Rp40
sI13
g1
((lp41
I24
aI36
atp42
Rp43
sI14
g1
((lp44
I16
aI9
atp45
Rp46
sI15
g1
((lp47
I26
aI27
aI6
aI46
atp48
Rp49
sI16
g1
((lp50
I17
aI12
aI30
aI14
aI7
atp51
Rp52
sI17
g1
((lp53
I16
aI28
atp54
Rp55
sI18
g1
((lp56
I19
aI79
atp57
Rp58
sI19
g1
((lp59
I64
aI18
aI20
aI63
atp60
Rp61
sI20
g1
((lp62
I65
aI66
aI19
aI21
atp63
Rp64
sI21
g1
((lp65
I80
aI20
aI45
atp66
Rp67
sI22
g1
((lp68
I23
aI46
aI52
aI53
aI54
aI55
atp69
Rp70
sI23
g1
((lp71
I35
aI12
aI22
aI56
aI57
aI58
aI59
atp72
Rp73
sI24
g1
((lp74
I82
aI36
aI13
atp75
Rp76
sI25
g1
((lp77
I11
aI29
aI31
atp78
Rp79
sI26
g1
((lp80
I27
aI15
atp81
Rp82
sI27
g1
((lp83
I32
aI26
aI46
aI15
atp84
Rp85
sI28
g1
((lp86
I17
aI30
aI33
atp87
Rp88
sI29
g1
((lp89
I40
aI25
aI34
aI11
aI31
atp90
Rp91
sI30
g1
((lp92
I16
aI33
aI35
aI28
aI41
atp93
Rp94
sI31
g1
((lp95
I25
aI29
aI37
atp96
Rp97
sI32
g1
((lp98
I27
aI38
aI46
atp99
Rp100
sI33
g1
((lp101
I28
aI30
aI39
atp102
Rp103
sI34
g1
((lp104
I40
aI81
aI10
aI29
aI45
atp105
Rp106
sI35
g1
((lp107
I41
aI67
aI12
aI30
aI23
atp108
Rp109
sI36
g1
((lp110
I24
aI68
aI13
atp111
Rp112
sI37
g1
((lp113
I40
aI31
atp114
Rp115
sI38
g1
((lp116
I32
aI46
atp117
Rp118
sI39
g1
((lp119
I33
aI41
atp120
Rp121
sI40
g1
((lp122
I34
aI42
aI37
aI29
atp123
Rp124
sI41
g1
((lp125
I35
aI39
aI44
aI48
aI49
aI30
atp126
Rp127
sI42
g1
((lp128
I40
aI81
atp129
Rp130
sI43
g1
((lp131
I51
aI46
atp132
Rp133
sI44
g1
((lp134
I41
aI50
atp135
Rp136
sI45
g1
((lp137
I34
aI131
aI132
aI133
aI10
aI130
aI80
aI81
aI21
atp138
Rp139
sI46
g1
((lp140
I32
aI75
aI6
aI38
aI43
aI204
aI15
aI99
aI51
aI22
aI27
atp141
Rp142
sI47
g1
((lp143
I51
aI61
atp144
Rp145
sI48
g1
((lp146
I49
aI67
aI62
aI41
atp147
Rp148
sI49
g1
((lp149
I48
aI41
aI50
atp150
Rp151
sI50
g1
((lp152
I49
aI44
atp153
Rp154
sI51
g1
((lp155
I75
aI43
aI61
aI46
aI47
atp156
Rp157
sI52
g1
((lp158
I53
aI22
atp159
Rp160
sI53
g1
((lp161
I52
aI22
aI54
atp162
Rp163
sI54
g1
((lp164
I53
aI22
aI55
atp165
Rp166
sI55
g1
((lp167
I56
aI22
aI54
atp168
Rp169
sI56
g1
((lp170
I57
aI23
aI55
atp171
Rp172
sI57
g1
((lp173
I56
aI58
aI23
atp174
Rp175
sI58
g1
((lp176
I57
aI59
aI69
aI70
aI23
atp177
Rp178
sI59
g1
((lp179
I58
aI67
aI76
aI23
atp180
Rp181
sI60
g1
((lp182
I81
atp183
Rp184
sI61
g1
((lp185
I74
aI51
aI47
atp186
Rp187
sI62
g1
((lp188
I48
aI67
aI71
atp189
Rp190
sI63
g1
((lp191
I64
aI89
aI90
aI19
aI79
atp192
Rp193
sI64
g1
((lp194
I19
aI65
aI83
aI84
aI85
aI86
aI63
atp195
Rp196
sI65
g1
((lp197
I64
aI92
aI66
aI91
aI20
atp198
Rp199
sI66
g1
((lp200
I80
aI65
aI20
aI97
atp201
Rp202
sI67
g1
((lp203
I35
aI100
aI71
aI76
aI78
aI48
aI59
aI62
atp204
Rp205
sI68
g1
((lp206
I82
aI36
aI101
atp207
Rp208
sI69
g1
((lp209
I58
aI70
atp210
Rp211
sI70
g1
((lp212
I58
aI76
aI69
atp213
Rp214
sI71
g1
((lp215
I67
aI62
atp216
Rp217
sI72
g1
((lp218
I73
aI98
aI81
atp219
Rp220
sI73
g1
((lp221
I72
aI74
aI98
atp222
Rp223
sI74
g1
((lp224
I99
aI73
aI75
aI61
atp225
Rp226
sI75
g1
((lp227
I99
aI74
aI51
aI46
atp228
Rp229
sI76
g1
((lp230
I59
aI67
aI77
aI70
aI93
atp231
Rp232
sI77
g1
((lp233
I76
aI87
atp234
Rp235
sI78
g1
((lp236
I88
aI67
atp237
Rp238
sI79
g1
((lp239
I89
aI18
aI147
aI108
aI63
atp240
Rp241
sI80
g1
((lp242
I128
aI97
aI66
aI129
aI45
aI21
atp243
Rp244
sI81
g1
((lp245
I98
aI72
aI42
aI203
aI34
aI45
aI60
atp246
Rp247
sI82
g1
((lp248
I24
aI148
aI68
aI101
atp249
Rp250
sI83
g1
((lp251
I64
aI90
aI84
aI94
atp252
Rp253
sI84
g1
((lp254
I64
aI83
aI85
atp255
Rp256
sI85
g1
((lp257
I64
aI84
aI86
atp258
Rp259
sI86
g1
((lp260
I64
aI91
aI85
atp261
Rp262
sI87
g1
((lp263
I95
aI93
aI77
atp264
Rp265
sI88
g1
((lp266
I96
aI100
aI78
atp267
Rp268
sI89
g1
((lp269
I90
aI63
aI79
atp270
Rp271
sI90
g1
((lp272
I102
aI103
aI83
aI89
aI94
aI63
atp273
Rp274
sI91
g1
((lp275
I65
aI92
aI86
atp276
Rp277
sI92
g1
((lp278
I104
aI97
aI91
aI105
aI65
atp279
Rp280
sI93
g1
((lp281
I76
aI95
aI100
aI109
aI87
atp282
Rp283
sI94
g1
((lp284
I90
aI83
atp285
Rp286
sI95
g1
((lp287
I106
aI93
aI87
atp288
Rp289
sI96
g1
((lp290
I88
aI107
aI100
atp291
Rp292
sI97
g1
((lp293
I66
aI105
aI111
aI80
aI92
aI127
atp294
Rp295
sI98
g1
((lp296
I72
aI81
aI99
aI73
atp297
Rp298
sI99
g1
((lp299
I98
aI75
aI74
aI46
aI203
atp300
Rp301
sI100
g1
((lp302
I96
aI67
aI134
aI107
aI109
aI113
aI88
aI93
atp303
Rp304
sI101
g1
((lp305
I82
aI115
aI68
aI135
atp306
Rp307
sI102
g1
((lp308
I90
aI108
aI103
atp309
Rp310
sI103
g1
((lp311
I90
aI102
atp312
Rp313
sI104
g1
((lp314
I105
aI92
atp315
Rp316
sI105
g1
((lp317
I104
aI97
aI92
atp318
Rp319
sI106
g1
((lp320
I109
aI95
atp321
Rp322
sI107
g1
((lp323
I96
aI100
atp324
Rp325
sI108
g1
((lp326
I120
aI110
aI102
aI79
atp327
Rp328
sI109
g1
((lp329
I112
aI121
aI106
aI100
aI93
atp330
Rp331
sI110
g1
((lp332
I116
aI108
atp333
Rp334
sI111
g1
((lp335
I97
aI117
atp336
Rp337
sI112
g1
((lp338
I109
aI118
atp339
Rp340
sI113
g1
((lp341
I100
aI119
atp342
Rp343
sI114
g1
((lp344
I122
aI115
atp345
Rp346
sI115
g1
((lp347
I114
aI122
aI101
atp348
Rp349
sI116
g1
((lp350
I120
aI123
aI110
atp351
Rp352
sI117
g1
((lp353
I111
aI124
aI127
atp354
Rp355
sI118
g1
((lp356
I112
aI121
aI125
atp357
Rp358
sI119
g1
((lp359
I113
aI134
aI126
atp360
Rp361
sI120
g1
((lp362
I108
aI123
aI116
aI147
atp363
Rp364
sI121
g1
((lp365
I141
aI125
aI134
aI118
aI109
atp366
Rp367
sI122
g1
((lp368
I114
aI115
aI142
aI135
atp369
Rp370
sI123
g1
((lp371
I120
aI136
aI116
atp372
Rp373
sI124
g1
((lp374
I140
aI117
aI127
atp375
Rp376
sI125
g1
((lp377
I121
aI118
aI137
atp378
Rp379
sI126
g1
((lp380
I138
aI134
aI119
atp381
Rp382
sI127
g1
((lp383
I128
aI97
aI140
aI178
aI117
aI124
atp384
Rp385
sI128
g1
((lp386
I80
aI129
aI162
aI163
aI127
atp387
Rp388
sI129
g1
((lp389
I128
aI130
aI80
aI149
aI150
aI151
aI152
atp390
Rp391
sI130
g1
((lp392
I129
aI131
aI164
aI45
aI165
atp393
Rp394
sI131
g1
((lp395
I130
aI132
aI45
aI166
aI167
atp396
Rp397
sI132
g1
((lp398
I131
aI133
aI45
aI153
aI154
aI155
aI156
atp399
Rp400
sI133
g1
((lp401
I168
aI169
aI203
aI132
aI45
atp402
Rp403
sI134
g1
((lp404
I100
aI138
aI141
aI146
aI179
aI119
aI121
aI126
atp405
Rp406
sI135
g1
((lp407
I180
aI122
aI148
aI101
aI142
atp408
Rp409
sI136
g1
((lp410
I123
aI139
atp411
Rp412
sI137
g1
((lp413
I141
aI125
atp414
Rp415
sI138
g1
((lp416
I126
aI134
atp417
Rp418
sI139
g1
((lp419
I136
aI177
aI147
aI143
atp420
Rp421
sI140
g1
((lp422
I161
aI124
aI127
atp423
Rp424
sI141
g1
((lp425
I145
aI137
aI170
aI134
aI121
atp426
Rp427
sI142
g1
((lp428
I160
aI122
aI159
aI135
atp429
Rp430
sI143
g1
((lp431
I144
aI139
atp432
Rp433
sI144
g1
((lp434
I177
aI143
atp435
Rp436
sI145
g1
((lp437
I141
aI157
atp438
Rp439
sI146
g1
((lp440
I158
aI134
atp441
Rp442
sI147
g1
((lp443
I120
aI177
aI139
aI244
aI79
atp444
Rp445
sI148
g1
((lp446
I82
aI247
aI180
aI135
atp447
Rp448
sI149
g1
((lp449
I129
aI163
aI173
aI150
atp450
Rp451
sI150
g1
((lp452
I129
aI149
aI151
atp453
Rp454
sI151
g1
((lp455
I152
aI129
aI150
atp456
Rp457
sI152
g1
((lp458
I129
aI164
aI151
atp459
Rp460
sI153
g1
((lp461
I154
aI132
aI174
aI167
atp462
Rp463
sI154
g1
((lp464
I153
aI155
aI132
atp465
Rp466
sI155
g1
((lp467
I132
aI154
aI156
atp468
Rp469
sI156
g1
((lp470
I168
aI155
aI132
atp471
Rp472
sI157
g1
((lp473
I145
aI170
aI175
atp474
Rp475
sI158
g1
((lp476
I176
aI146
aI179
atp477
Rp478
sI159
g1
((lp479
I160
aI142
atp480
Rp481
sI160
g1
((lp482
I180
aI142
aI159
atp483
Rp484
sI161
g1
((lp485
I172
aI178
aI140
aI193
atp486
Rp487
sI162
g1
((lp488
I128
aI178
aI163
aI194
atp489
Rp490
sI163
g1
((lp491
I128
aI162
aI173
aI181
aI182
aI149
atp492
Rp493
sI164
g1
((lp494
I152
aI130
aI165
aI183
atp495
Rp496
sI165
g1
((lp497
I130
aI195
aI164
aI166
atp498
Rp499
sI166
g1
((lp500
I131
aI196
aI165
aI167
atp501
Rp502
sI167
g1
((lp503
I131
aI166
aI174
aI185
aI184
aI153
atp504
Rp505
sI168
g1
((lp506
I169
aI186
aI187
aI156
aI133
atp507
Rp508
sI169
g1
((lp509
I168
aI203
aI133
aI197
atp510
Rp511
sI170
g1
((lp512
I175
aI179
aI157
aI198
aI141
atp513
Rp514
sI171
g1
((lp515
I177
atp516
Rp517
sI172
g1
((lp518
I192
aI161
atp519
Rp520
sI173
g1
((lp521
I163
aI149
atp522
Rp523
sI174
g1
((lp524
I153
aI167
atp525
Rp526
sI175
g1
((lp527
I170
aI188
aI157
atp528
Rp529
sI176
g1
((lp530
I179
aI189
aI158
atp531
Rp532
sI177
g1
((lp533
I171
aI139
aI144
aI147
aI245
aI190
atp534
Rp535
sI178
g1
((lp536
I161
aI162
aI193
aI194
aI246
aI127
atp537
Rp538
sI179
g1
((lp539
I198
aI134
aI202
aI189
aI176
aI221
aI170
aI158
atp540
Rp541
sI180
g1
((lp542
I160
aI148
aI222
aI135
atp543
Rp544
sI181
g1
((lp545
I194
aI163
aI182
atp546
Rp547
sI182
g1
((lp548
I163
aI181
atp549
Rp550
sI183
g1
((lp551
I195
aI164
atp552
Rp553
sI184
g1
((lp554
I185
aI196
aI167
atp555
Rp556
sI185
g1
((lp557
I184
aI167
atp558
Rp559
sI186
g1
((lp560
I168
aI187
atp561
Rp562
sI187
g1
((lp563
I168
aI186
aI197
atp564
Rp565
sI188
g1
((lp566
I198
aI175
atp567
Rp568
sI189
g1
((lp569
I176
aI179
atp570
Rp571
sI190
g1
((lp572
I177
aI191
atp573
Rp574
sI191
g1
((lp575
I192
aI245
aI190
atp576
Rp577
sI192
g1
((lp578
I193
aI172
aI246
aI191
atp579
Rp580
sI193
g1
((lp581
I192
aI161
aI178
aI246
atp582
Rp583
sI194
g1
((lp584
I212
aI178
aI162
aI181
aI199
atp585
Rp586
sI195
g1
((lp587
I205
aI196
aI165
aI183
atp588
Rp589
sI196
g1
((lp590
I184
aI195
aI206
aI166
aI207
atp591
Rp592
sI197
g1
((lp593
I200
aI169
aI203
aI208
aI209
aI187
atp594
Rp595
sI198
g1
((lp596
I201
aI170
aI179
aI188
aI213
atp597
Rp598
sI199
g1
((lp599
I194
atp600
Rp601
sI200
g1
((lp602
I197
atp603
Rp604
sI201
g1
((lp605
I210
aI198
atp606
Rp607
sI202
g1
((lp608
I179
aI211
atp609
Rp610
sI203
g1
((lp611
I99
aI261
aI133
aI209
aI169
aI331
aI204
aI81
aI216
aI197
atp612
Rp613
sI204
g1
((lp614
I203
aI229
aI264
aI267
aI268
aI46
aI276
aI251
atp615
Rp616
sI205
g1
((lp617
I195
aI214
aI206
atp618
Rp619
sI206
g1
((lp620
I215
aI196
aI205
aI207
atp621
Rp622
sI207
g1
((lp623
I196
aI206
atp624
Rp625
sI208
g1
((lp626
I209
aI197
atp627
Rp628
sI209
g1
((lp629
I208
aI216
aI203
aI197
atp630
Rp631
sI210
g1
((lp632
I201
aI213
aI217
atp633
Rp634
sI211
g1
((lp635
I202
aI218
aI221
atp636
Rp637
sI212
g1
((lp638
I194
aI246
aI223
atp639
Rp640
sI213
g1
((lp641
I217
aI210
aI227
aI221
aI198
atp642
Rp643
sI214
g1
((lp644
I205
aI215
atp645
Rp646
sI215
g1
((lp647
I206
aI214
atp648
Rp649
sI216
g1
((lp650
I209
aI203
atp651
Rp652
sI217
g1
((lp653
I225
aI210
aI213
atp654
Rp655
sI218
g1
((lp656
I219
aI221
aI211
atp657
Rp658
sI219
g1
((lp659
I228
aI218
aI220
atp660
Rp661
sI220
g1
((lp662
I226
aI219
atp663
Rp664
sI221
g1
((lp665
I227
aI228
aI211
aI179
aI213
aI218
aI255
atp666
Rp667
sI222
g1
((lp668
I256
aI180
aI247
atp669
Rp670
sI223
g1
((lp671
I212
aI246
atp672
Rp673
sI224
g1
((lp674
tp675
Rp676
sI225
g1
((lp677
I217
aI227
atp678
Rp679
sI226
g1
((lp680
I228
aI220
atp681
Rp682
sI227
g1
((lp683
I225
aI242
aI221
aI254
aI213
atp684
Rp685
sI228
g1
((lp686
I249
aI226
aI243
aI221
aI219
atp687
Rp688
sI229
g1
((lp689
I251
aI204
aI230
atp690
Rp691
sI230
g1
((lp692
I251
aI229
aI231
atp693
Rp694
sI231
g1
((lp695
I232
aI251
aI230
atp696
Rp697
sI232
g1
((lp698
I233
aI251
aI231
atp699
Rp700
sI233
g1
((lp701
I232
aI234
aI252
atp702
Rp703
sI234
g1
((lp704
I233
aI235
aI252
atp705
Rp706
sI235
g1
((lp707
I252
aI234
aI236
atp708
Rp709
sI236
g1
((lp710
I235
aI252
aI237
atp711
Rp712
sI237
g1
((lp713
I236
aI253
aI238
atp714
Rp715
sI238
g1
((lp716
I253
aI237
aI239
atp717
Rp718
sI239
g1
((lp719
I240
aI253
aI238
atp720
Rp721
sI240
g1
((lp722
I241
aI253
aI239
atp723
Rp724
sI241
g1
((lp725
I240
aI242
aI254
atp726
Rp727
sI242
g1
((lp728
I241
aI227
aI254
atp729
Rp730
sI243
g1
((lp731
I248
aI228
atp732
Rp733
sI244
g1
((lp734
I330
aI147
aI245
atp735
Rp736
sI245
g1
((lp737
I177
aI330
aI244
aI246
aI191
atp738
Rp739
sI246
g1
((lp740
I192
aI193
aI260
aI297
aI178
aI212
aI245
aI223
atp741
Rp742
sI247
g1
((lp743
I256
aI298
aI148
aI222
atp744
Rp745
sI248
g1
((lp746
I249
aI250
aI243
atp747
Rp748
sI249
g1
((lp749
I248
aI250
aI259
aI228
aI255
atp750
Rp751
sI250
g1
((lp752
I248
aI249
aI258
atp753
Rp754
sI251
g1
((lp755
I229
aI230
aI231
aI232
aI204
aI277
aI252
atp756
Rp757
sI252
g1
((lp758
I233
aI234
aI235
aI236
aI278
aI251
aI253
atp759
Rp760
sI253
g1
((lp761
I237
aI238
aI239
aI240
aI279
aI252
aI254
atp762
Rp763
sI254
g1
((lp764
I227
aI241
aI242
aI280
aI253
aI255
atp765
Rp766
sI255
g1
((lp767
I249
aI259
aI221
aI254
aI281
atp768
Rp769
sI256
g1
((lp770
I282
aI222
aI247
atp771
Rp772
sI257
g1
((lp773
tp774
Rp775
sI258
g1
((lp776
I250
aI259
atp777
Rp778
sI259
g1
((lp779
I249
aI258
aI269
aI262
aI255
atp780
Rp781
sI260
g1
((lp782
I266
aI246
atp783
Rp784
sI261
g1
((lp785
I203
aI263
atp786
Rp787
sI262
g1
((lp788
I265
aI259
atp789
Rp790
sI263
g1
((lp791
I273
aI331
aI261
atp792
Rp793
sI264
g1
((lp794
I204
aI274
aI268
atp795
Rp796
sI265
g1
((lp797
I275
aI269
aI262
atp798
Rp799
sI266
g1
((lp800
I297
aI260
aI270
atp801
Rp802
sI267
g1
((lp803
I276
aI204
aI289
atp804
Rp805
sI268
g1
((lp806
I264
aI274
aI290
aI204
aI277
atp807
Rp808
sI269
g1
((lp809
I259
aI265
aI275
aI291
aI281
atp810
Rp811
sI270
g1
((lp812
I266
atp813
Rp814
sI271
g1
((lp815
I272
aI283
atp816
Rp817
sI272
g1
((lp818
I273
aI271
atp819
Rp820
sI273
g1
((lp821
I272
aI288
aI331
aI263
atp822
Rp823
sI274
g1
((lp824
I264
aI284
aI268
atp825
Rp826
sI275
g1
((lp827
I265
aI269
aI285
atp828
Rp829
sI276
g1
((lp830
I289
aI267
aI331
aI204
aI307
aI308
atp831
Rp832
sI277
g1
((lp833
I290
aI251
aI268
aI278
atp834
Rp835
sI278
g1
((lp836
I252
aI277
aI279
atp837
Rp838
sI279
g1
((lp839
I280
aI253
aI278
atp840
Rp841
sI280
g1
((lp842
I281
aI311
aI302
aI254
aI279
atp843
Rp844
sI281
g1
((lp845
I280
aI317
aI291
aI269
aI255
atp846
Rp847
sI282
g1
((lp848
I256
aI298
aI318
atp849
Rp850
sI283
g1
((lp851
I288
aI271
atp852
Rp853
sI284
g1
((lp854
I290
aI274
atp855
Rp856
sI285
g1
((lp857
I291
aI275
atp858
Rp859
sI286
g1
((lp860
I304
aI297
aI287
atp861
Rp862
sI287
g1
((lp863
I305
aI292
aI286
atp864
Rp865
sI288
g1
((lp866
I273
aI331
aI283
aI306
aI294
atp867
Rp868
sI289
g1
((lp869
I267
aI276
aI309
atp870
Rp871
sI290
g1
((lp872
I268
aI284
aI277
aI310
aI295
atp873
Rp874
sI291
g1
((lp875
I296
aI281
aI312
aI285
aI269
atp876
Rp877
sI292
g1
((lp878
I287
atp879
Rp880
sI293
g1
((lp881
I299
aI294
atp882
Rp883
sI294
g1
((lp884
I288
aI300
aI293
atp885
Rp886
sI295
g1
((lp887
I290
aI301
atp888
Rp889
sI296
g1
((lp890
I291
aI303
atp891
Rp892
sI297
g1
((lp893
I352
aI323
aI266
aI304
aI246
aI330
aI286
atp894
Rp895
sI298
g1
((lp896
I353
aI282
aI318
aI247
atp897
Rp898
sI299
g1
((lp899
I300
aI293
atp900
Rp901
sI300
g1
((lp902
I313
aI306
aI299
aI294
atp903
Rp904
sI301
g1
((lp905
I314
aI310
aI295
atp906
Rp907
sI302
g1
((lp908
I280
aI315
aI311
atp909
Rp910
sI303
g1
((lp911
I296
aI312
aI316
atp912
Rp913
sI304
g1
((lp914
I297
aI286
aI305
atp915
Rp916
sI305
g1
((lp917
I304
aI319
aI287
atp918
Rp919
sI306
g1
((lp920
I288
aI313
aI331
aI300
aI324
atp921
Rp922
sI307
g1
((lp923
I320
aI276
aI331
aI308
atp924
Rp925
sI308
g1
((lp926
I307
aI276
aI309
atp927
Rp928
sI309
g1
((lp929
I289
aI308
atp930
Rp931
sI310
g1
((lp932
I290
aI314
aI301
atp933
Rp934
sI311
g1
((lp935
I280
aI315
aI317
aI302
aI325
atp936
Rp937
sI312
g1
((lp938
I291
aI316
aI317
aI326
aI303
atp939
Rp940
sI313
g1
((lp941
I306
aI300
atp942
Rp943
sI314
g1
((lp944
I301
aI310
atp945
Rp946
sI315
g1
((lp947
I321
aI302
aI311
atp948
Rp949
sI316
g1
((lp950
I312
aI322
aI303
atp951
Rp952
sI317
g1
((lp953
I325
aI326
aI342
aI311
aI312
aI281
atp954
Rp955
sI318
g1
((lp956
I298
aI282
aI343
atp957
Rp958
sI319
g1
((lp959
I305
aI323
atp960
Rp961
sI320
g1
((lp962
I307
atp963
Rp964
sI321
g1
((lp965
I315
aI325
atp966
Rp967
sI322
g1
((lp968
I316
aI326
atp969
Rp970
sI323
g1
((lp971
I297
aI332
aI319
atp972
Rp973
sI324
g1
((lp974
I306
aI331
aI333
atp975
Rp976
sI325
g1
((lp977
I328
aI321
aI317
aI337
aI311
atp978
Rp979
sI326
g1
((lp980
I312
aI329
aI322
aI338
aI317
atp981
Rp982
sI327
g1
((lp983
I331
aI334
atp984
Rp985
sI328
g1
((lp986
I325
aI335
atp987
Rp988
sI329
g1
((lp989
I336
aI326
atp990
Rp991
sI330
g1
((lp992
I352
aI423
aI297
aI395
aI396
aI397
aI398
aI399
aI400
aI244
aI245
atp993
Rp994
sI331
g1
((lp995
I288
aI354
aI203
aI324
aI263
aI360
aI361
aI327
aI333
aI334
aI368
aI273
aI306
aI307
aI276
aI469
aI470
aI344
aI372
aI379
aI349
atp996
Rp997
sI332
g1
((lp998
I352
aI323
atp999
Rp1000
sI333
g1
((lp1001
I331
aI324
atp1002
Rp1003
sI334
g1
((lp1004
I339
aI331
aI327
atp1005
Rp1006
sI335
g1
((lp1007
I328
aI337
aI340
atp1008
Rp1009
sI336
g1
((lp1010
I329
aI338
aI341
atp1011
Rp1012
sI337
g1
((lp1013
I347
aI340
aI325
aI342
aI335
atp1014
Rp1015
sI338
g1
((lp1016
I336
aI348
aI342
aI341
aI326
atp1017
Rp1018
sI339
g1
((lp1019
I344
aI334
atp1020
Rp1021
sI340
g1
((lp1022
I337
aI345
aI335
atp1023
Rp1024
sI341
g1
((lp1025
I336
aI338
aI346
atp1026
Rp1027
sI342
g1
((lp1028
I364
aI337
aI338
aI347
aI348
aI317
atp1029
Rp1030
sI343
g1
((lp1031
I353
aI365
aI318
atp1032
Rp1033
sI344
g1
((lp1034
I339
aI331
atp1035
Rp1036
sI345
g1
((lp1037
I347
aI340
atp1038
Rp1039
sI346
g1
((lp1040
I348
aI341
atp1041
Rp1042
sI347
g1
((lp1043
I345
aI357
aI350
aI342
aI337
atp1044
Rp1045
sI348
g1
((lp1046
I346
aI358
aI338
aI342
aI351
atp1047
Rp1048
sI349
g1
((lp1049
I354
aI331
atp1050
Rp1051
sI350
g1
((lp1052
I355
aI347
atp1053
Rp1054
sI351
g1
((lp1055
I356
aI348
atp1056
Rp1057
sI352
g1
((lp1058
I297
aI330
aI371
aI332
aI468
atp1059
Rp1060
sI353
g1
((lp1061
I298
aI365
aI343
aI410
aI411
aI412
aI413
atp1062
Rp1063
sI354
g1
((lp1064
I361
aI331
aI349
atp1065
Rp1066
sI355
g1
((lp1067
I362
aI357
aI350
atp1068
Rp1069
sI356
g1
((lp1070
I363
aI358
aI351
atp1071
Rp1072
sI357
g1
((lp1073
I347
aI355
aI364
aI362
aI373
atp1074
Rp1075
sI358
g1
((lp1076
I348
aI363
aI356
aI374
aI364
atp1077
Rp1078
sI359
g1
((lp1079
tp1080
Rp1081
sI360
g1
((lp1082
I331
aI372
atp1083
Rp1084
sI361
g1
((lp1085
I368
aI354
aI331
atp1086
Rp1087
sI362
g1
((lp1088
I369
aI355
aI357
atp1089
Rp1090
sI363
g1
((lp1091
I370
aI356
aI358
atp1092
Rp1093
sI364
g1
((lp1094
I342
aI358
aI426
aI373
aI374
aI357
atp1095
Rp1096
sI365
g1
((lp1097
I408
aI353
aI409
aI343
atp1098
Rp1099
sI366
g1
((lp1100
I367
atp1101
Rp1102
sI367
g1
((lp1103
I366
atp1104
Rp1105
sI368
g1
((lp1106
I361
aI331
atp1107
Rp1108
sI369
g1
((lp1109
I362
aI373
atp1110
Rp1111
sI370
g1
((lp1112
I363
aI374
atp1113
Rp1114
sI371
g1
((lp1115
I352
aI424
aI375
atp1116
Rp1117
sI372
g1
((lp1118
I360
aI331
aI403
atp1119
Rp1120
sI373
g1
((lp1121
I369
aI388
aI364
aI357
aI406
atp1122
Rp1123
sI374
g1
((lp1124
I370
aI364
aI389
aI358
aI407
atp1125
Rp1126
sI375
g1
((lp1127
I371
atp1128
Rp1129
sI376
g1
((lp1130
I377
aI401
atp1131
Rp1132
sI377
g1
((lp1133
I376
aI378
aI402
atp1134
Rp1135
sI378
g1
((lp1136
I377
aI402
atp1137
Rp1138
sI379
g1
((lp1139
I425
aI331
aI380
atp1140
Rp1141
sI380
g1
((lp1142
I425
aI379
aI381
atp1143
Rp1144
sI381
g1
((lp1145
I425
aI380
aI382
atp1146
Rp1147
sI382
g1
((lp1148
I425
aI381
aI383
atp1149
Rp1150
sI383
g1
((lp1151
I384
aI404
aI382
atp1152
Rp1153
sI384
g1
((lp1154
I404
aI383
atp1155
Rp1156
sI385
g1
((lp1157
I392
aI386
atp1158
Rp1159
sI386
g1
((lp1160
I385
aI387
aI405
atp1161
Rp1162
sI387
g1
((lp1163
I386
aI405
atp1164
Rp1165
sI388
g1
((lp1166
I393
aI373
atp1167
Rp1168
sI389
g1
((lp1169
I394
aI374
atp1170
Rp1171
sI390
g1
((lp1172
I416
aI402
atp1173
Rp1174
sI391
g1
((lp1175
I403
aI419
atp1176
Rp1177
sI392
g1
((lp1178
I385
aI420
aI405
atp1179
Rp1180
sI393
g1
((lp1181
I388
aI421
aI406
atp1182
Rp1183
sI394
g1
((lp1184
I389
aI422
aI407
atp1185
Rp1186
sI395
g1
((lp1187
I428
aI330
aI427
aI396
atp1188
Rp1189
sI396
g1
((lp1190
I330
aI395
aI397
aI430
aI429
atp1191
Rp1192
sI397
g1
((lp1193
I432
aI330
aI396
aI398
aI431
atp1194
Rp1195
sI398
g1
((lp1196
I433
aI330
aI434
aI397
aI399
atp1197
Rp1198
sI399
g1
((lp1199
I400
aI330
aI435
aI436
aI398
atp1200
Rp1201
sI400
g1
((lp1202
I330
aI423
aI437
aI438
aI399
atp1203
Rp1204
sI401
g1
((lp1205
I376
aI402
aI446
aI415
atp1206
Rp1207
sI402
g1
((lp1208
I416
aI390
aI401
aI377
aI378
aI447
atp1209
Rp1210
sI403
g1
((lp1211
I450
aI419
aI372
aI469
aI391
atp1212
Rp1213
sI404
g1
((lp1214
I384
aI425
aI451
aI383
atp1215
Rp1216
sI405
g1
((lp1217
I392
aI452
aI386
aI387
aI420
atp1218
Rp1219
sI406
g1
((lp1220
I393
aI426
aI453
aI373
aI421
atp1221
Rp1222
sI407
g1
((lp1223
I454
aI394
aI374
aI422
aI426
atp1224
Rp1225
sI408
g1
((lp1226
I409
aI365
aI1062
atp1227
Rp1228
sI409
g1
((lp1229
I408
aI410
aI365
atp1230
Rp1231
sI410
g1
((lp1232
I409
aI411
aI353
atp1233
Rp1234
sI411
g1
((lp1235
I353
aI410
aI412
atp1236
Rp1237
sI412
g1
((lp1238
I353
aI411
aI413
atp1239
Rp1240
sI413
g1
((lp1241
I353
aI412
atp1242
Rp1243
sI414
g1
((lp1244
I424
aI439
atp1245
Rp1246
sI415
g1
((lp1247
I401
aI445
atp1248
Rp1249
sI416
g1
((lp1250
I417
aI402
aI390
atp1251
Rp1252
sI417
g1
((lp1253
I416
aI448
atp1254
Rp1255
sI418
g1
((lp1256
I419
atp1257
Rp1258
sI419
g1
((lp1259
I449
aI418
aI403
aI391
atp1260
Rp1261
sI420
g1
((lp1262
I392
aI442
aI405
atp1263
Rp1264
sI421
g1
((lp1265
I393
aI443
aI406
atp1266
Rp1267
sI422
g1
((lp1268
I394
aI407
atp1269
Rp1270
sI423
g1
((lp1271
I400
aI330
aI468
aI478
aI438
atp1272
Rp1273
sI424
g1
((lp1274
I457
aI371
aI468
aI414
aI479
atp1275
Rp1276
sI425
g1
((lp1277
I451
aI485
aI404
aI470
aI379
aI380
aI381
aI382
atp1278
Rp1279
sI426
g1
((lp1280
I453
aI454
aI490
aI364
aI406
aI407
atp1281
Rp1282
sI427
g1
((lp1283
I395
aI428
atp1284
Rp1285
sI428
g1
((lp1286
I427
aI395
aI429
atp1287
Rp1288
sI429
g1
((lp1289
I396
aI428
aI430
atp1290
Rp1291
sI430
g1
((lp1292
I396
aI429
aI431
atp1293
Rp1294
sI431
g1
((lp1295
I432
aI397
aI430
atp1296
Rp1297
sI432
g1
((lp1298
I433
aI397
aI431
atp1299
Rp1300
sI433
g1
((lp1301
I432
aI434
aI398
atp1302
Rp1303
sI434
g1
((lp1304
I433
aI435
aI398
atp1305
Rp1306
sI435
g1
((lp1307
I434
aI436
aI399
atp1308
Rp1309
sI436
g1
((lp1310
I435
aI437
aI399
atp1311
Rp1312
sI437
g1
((lp1313
I400
aI436
aI438
atp1314
Rp1315
sI438
g1
((lp1316
I400
aI437
aI423
atp1317
Rp1318
sI439
g1
((lp1319
I414
atp1320
Rp1321
sI440
g1
((lp1322
I448
atp1323
Rp1324
sI441
g1
((lp1325
I449
atp1326
Rp1327
sI442
g1
((lp1328
I420
aI452
atp1329
Rp1330
sI443
g1
((lp1331
I453
aI421
atp1332
Rp1333
sI444
g1
((lp1334
I456
aI1060
atp1335
Rp1336
sI445
g1
((lp1337
I481
aI460
aI446
aI415
atp1338
Rp1339
sI446
g1
((lp1340
I401
aI481
aI445
aI447
atp1341
Rp1342
sI447
g1
((lp1343
I448
aI402
aI482
aI446
atp1344
Rp1345
sI448
g1
((lp1346
I440
aI417
aI482
aI461
aI447
atp1347
Rp1348
sI449
g1
((lp1349
I464
aI441
aI450
aI419
aI484
atp1350
Rp1351
sI450
g1
((lp1352
I449
aI403
aI484
aI469
atp1353
Rp1354
sI451
g1
((lp1355
I425
aI404
aI473
atp1356
Rp1357
sI452
g1
((lp1358
I474
aI465
aI442
aI405
atp1359
Rp1360
sI453
g1
((lp1361
I489
aI426
aI443
aI466
aI406
atp1362
Rp1363
sI454
g1
((lp1364
I426
aI407
aI491
aI455
atp1365
Rp1366
sI455
g1
((lp1367
I456
aI491
aI454
atp1368
Rp1369
sI456
g1
((lp1370
I467
aI444
aI475
aI455
atp1371
Rp1372
sI457
g1
((lp1373
I424
aI480
aI458
atp1374
Rp1375
sI458
g1
((lp1376
I480
aI457
aI459
atp1377
Rp1378
sI459
g1
((lp1379
I480
aI458
aI460
atp1380
Rp1381
sI460
g1
((lp1382
I480
aI459
aI445
atp1383
Rp1384
sI461
g1
((lp1385
I448
aI483
aI462
atp1386
Rp1387
sI462
g1
((lp1388
I483
aI461
aI463
atp1389
Rp1390
sI463
g1
((lp1391
I464
aI483
aI462
atp1392
Rp1393
sI464
g1
((lp1394
I449
aI483
aI463
atp1395
Rp1396
sI465
g1
((lp1397
I452
aI471
atp1398
Rp1399
sI466
g1
((lp1400
I489
aI453
atp1401
Rp1402
sI467
g1
((lp1403
I456
aI472
atp1404
Rp1405
sI468
g1
((lp1406
I352
aI423
aI424
aI524
aI478
aI479
atp1407
Rp1408
sI469
g1
((lp1409
I450
aI484
aI331
aI528
aI403
aI470
atp1410
Rp1411
sI470
g1
((lp1412
I485
aI425
aI331
aI469
aI508
aI509
atp1413
Rp1414
sI471
g1
((lp1415
I465
aI474
aI476
atp1416
Rp1417
sI472
g1
((lp1418
I467
aI477
aI475
atp1419
Rp1420
sI473
g1
((lp1421
I451
aI485
aI493
atp1422
Rp1423
sI474
g1
((lp1424
I476
aI498
aI452
aI486
aI471
atp1425
Rp1426
sI475
g1
((lp1427
I472
aI456
aI491
aI477
aI499
atp1428
Rp1429
sI476
g1
((lp1430
I497
aI474
aI471
atp1431
Rp1432
sI477
g1
((lp1433
I472
aI475
aI492
atp1434
Rp1435
sI478
g1
((lp1436
I507
aI468
aI423
atp1437
Rp1438
sI479
g1
((lp1439
I480
aI424
aI468
aI525
atp1440
Rp1441
sI480
g1
((lp1442
I481
aI457
aI458
aI459
aI460
aI525
aI479
atp1443
Rp1444
sI481
g1
((lp1445
I480
aI482
aI526
aI445
aI446
atp1446
Rp1447
sI482
g1
((lp1448
I448
aI481
aI483
aI526
aI447
atp1449
Rp1450
sI483
g1
((lp1451
I482
aI484
aI461
aI462
aI463
aI464
aI527
atp1452
Rp1453
sI484
g1
((lp1454
I449
aI450
aI483
aI469
aI527
atp1455
Rp1456
sI485
g1
((lp1457
I425
aI493
aI500
aI501
aI470
aI473
atp1458
Rp1459
sI486
g1
((lp1460
I529
aI474
aI498
aI487
atp1461
Rp1462
sI487
g1
((lp1463
I488
aI529
aI486
atp1464
Rp1465
sI488
g1
((lp1466
I489
aI530
aI487
atp1467
Rp1468
sI489
g1
((lp1469
I488
aI490
aI530
aI466
aI453
atp1470
Rp1471
sI490
g1
((lp1472
I531
aI489
aI426
aI491
atp1473
Rp1474
sI491
g1
((lp1475
I454
aI455
aI490
aI499
aI531
aI475
atp1476
Rp1477
sI492
g1
((lp1478
I499
aI477
atp1479
Rp1480
sI493
g1
((lp1481
I473
aI485
aI494
aI502
atp1482
Rp1483
sI494
g1
((lp1484
I503
aI493
aI495
atp1485
Rp1486
sI495
g1
((lp1487
I496
aI504
aI494
atp1488
Rp1489
sI496
g1
((lp1490
I497
aI505
aI495
atp1491
Rp1492
sI497
g1
((lp1493
I496
aI498
aI476
aI510
atp1494
Rp1495
sI498
g1
((lp1496
I497
aI474
aI510
aI486
atp1497
Rp1498
sI499
g1
((lp1499
I506
aI491
aI492
aI475
atp1500
Rp1501
sI500
g1
((lp1502
I512
aI509
aI511
aI501
aI485
atp1503
Rp1504
sI501
g1
((lp1505
I513
aI514
aI500
aI485
aI502
atp1506
Rp1507
sI502
g1
((lp1508
I515
aI493
aI516
aI501
aI503
atp1509
Rp1510
sI503
g1
((lp1511
I504
aI518
aI494
aI502
aI517
atp1512
Rp1513
sI504
g1
((lp1514
I519
aI505
aI495
aI520
aI503
atp1515
Rp1516
sI505
g1
((lp1517
I504
aI496
aI510
aI521
atp1518
Rp1519
sI506
g1
((lp1520
I531
aI499
atp1521
Rp1522
sI507
g1
((lp1523
I524
aI541
aI478
atp1524
Rp1525
sI508
g1
((lp1526
I528
aI542
aI509
aI470
atp1527
Rp1528
sI509
g1
((lp1529
I523
aI500
aI533
aI470
aI535
aI532
aI508
aI511
atp1530
Rp1531
sI510
g1
((lp1532
I529
aI521
aI497
aI498
aI537
aI536
aI505
atp1533
Rp1534
sI511
g1
((lp1535
I512
aI500
aI509
atp1536
Rp1537
sI512
g1
((lp1538
I513
aI500
aI511
atp1539
Rp1540
sI513
g1
((lp1541
I512
aI514
aI501
atp1542
Rp1543
sI514
g1
((lp1544
I513
aI515
aI501
atp1545
Rp1546
sI515
g1
((lp1547
I514
aI516
aI502
atp1548
Rp1549
sI516
g1
((lp1550
I515
aI517
aI502
atp1551
Rp1552
sI517
g1
((lp1553
I516
aI518
aI503
atp1554
Rp1555
sI518
g1
((lp1556
I503
aI517
aI519
atp1557
Rp1558
sI519
g1
((lp1559
I520
aI504
aI518
atp1560
Rp1561
sI520
g1
((lp1562
I504
aI521
aI519
atp1563
Rp1564
sI521
g1
((lp1565
I520
aI505
aI534
aI510
atp1566
Rp1567
sI522
g1
((lp1568
I538
aI531
atp1569
Rp1570
sI523
g1
((lp1571
I509
atp1572
Rp1573
sI524
g1
((lp1574
I576
aI507
aI468
aI525
aI541
atp1575
Rp1576
sI525
g1
((lp1577
I480
aI577
aI524
aI526
aI479
atp1578
Rp1579
sI526
g1
((lp1580
I481
aI482
aI578
aI525
aI527
atp1581
Rp1582
sI527
g1
((lp1583
I528
aI579
aI483
aI484
aI526
atp1584
Rp1585
sI528
g1
((lp1586
I580
aI508
aI469
aI542
aI527
atp1587
Rp1588
sI529
g1
((lp1589
I547
aI486
aI487
aI530
aI597
aI537
aI510
atp1590
Rp1591
sI530
g1
((lp1592
I488
aI529
aI531
aI597
aI489
atp1593
Rp1594
sI531
g1
((lp1595
I490
aI548
aI581
aI522
aI491
aI530
aI506
aI538
atp1596
Rp1597
sI532
g1
((lp1598
I539
aI535
aI533
aI509
atp1599
Rp1600
sI533
g1
((lp1601
I532
aI509
atp1602
Rp1603
sI534
g1
((lp1604
I536
aI521
atp1605
Rp1606
sI535
g1
((lp1607
I544
aI532
aI539
aI509
aI542
aI543
atp1608
Rp1609
sI536
g1
((lp1610
I537
aI510
aI534
aI545
atp1611
Rp1612
sI537
g1
((lp1613
I536
aI529
aI547
aI510
atp1614
Rp1615
sI538
g1
((lp1616
I522
aI531
aI540
atp1617
Rp1618
sI539
g1
((lp1619
I532
aI535
atp1620
Rp1621
sI540
g1
((lp1622
I538
aI546
atp1623
Rp1624
sI541
g1
((lp1625
I560
aI507
aI524
atp1626
Rp1627
sI542
g1
((lp1628
I549
aI528
aI561
aI535
aI508
aI543
atp1629
Rp1630
sI543
g1
((lp1631
I544
aI542
aI535
atp1632
Rp1633
sI544
g1
((lp1634
I535
aI543
atp1635
Rp1636
sI545
g1
((lp1637
I536
aI547
atp1638
Rp1639
sI546
g1
((lp1640
I548
aI540
atp1641
Rp1642
sI547
g1
((lp1643
I552
aI545
aI537
aI553
aI529
atp1644
Rp1645
sI548
g1
((lp1646
I555
aI546
aI531
aI550
atp1647
Rp1648
sI549
g1
((lp1649
I542
aI551
atp1650
Rp1651
sI550
g1
((lp1652
I554
aI548
atp1653
Rp1654
sI551
g1
((lp1655
I561
aI556
aI549
atp1656
Rp1657
sI552
g1
((lp1658
I553
aI547
atp1659
Rp1660
sI553
g1
((lp1661
I552
aI547
aI597
aI557
atp1662
Rp1663
sI554
g1
((lp1664
I555
aI558
aI550
atp1665
Rp1666
sI555
g1
((lp1667
I554
aI548
aI581
aI558
atp1668
Rp1669
sI556
g1
((lp1670
I561
aI551
atp1671
Rp1672
sI557
g1
((lp1673
I553
aI562
aI597
atp1674
Rp1675
sI558
g1
((lp1676
I554
aI555
aI559
atp1677
Rp1678
sI559
g1
((lp1679
I564
aI558
atp1680
Rp1681
sI560
g1
((lp1682
I576
aI587
aI541
atp1683
Rp1684
sI561
g1
((lp1685
I588
aI580
aI556
aI542
aI551
atp1686
Rp1687
sI562
g1
((lp1688
I597
aI557
atp1689
Rp1690
sI563
g1
((lp1691
I564
aI581
aI589
atp1692
Rp1693
sI564
g1
((lp1694
I563
aI565
aI589
aI559
atp1695
Rp1696
sI565
g1
((lp1697
I564
aI590
aI566
atp1698
Rp1699
sI566
g1
((lp1700
I565
aI590
aI567
atp1701
Rp1702
sI567
g1
((lp1703
I568
aI566
aI591
atp1704
Rp1705
sI568
g1
((lp1706
I569
aI591
aI567
atp1707
Rp1708
sI569
g1
((lp1709
I568
aI592
aI570
atp1710
Rp1711
sI570
g1
((lp1712
I592
aI569
aI571
atp1713
Rp1714
sI571
g1
((lp1715
I593
aI570
aI572
atp1716
Rp1717
sI572
g1
((lp1718
I593
aI571
aI573
atp1719
Rp1720
sI573
g1
((lp1721
I594
aI572
aI574
atp1722
Rp1723
sI574
g1
((lp1724
I594
aI573
atp1725
Rp1726
sI575
g1
((lp1727
I597
aI582
atp1728
Rp1729
sI576
g1
((lp1730
I577
aI587
aI524
aI560
aI600
aI601
atp1731
Rp1732
sI577
g1
((lp1733
I576
aI578
aI525
aI613
atp1734
Rp1735
sI578
g1
((lp1736
I603
aI577
aI602
aI579
aI526
atp1737
Rp1738
sI579
g1
((lp1739
I578
aI580
aI614
aI527
atp1740
Rp1741
sI580
g1
((lp1742
I528
aI561
aI579
aI588
aI615
atp1743
Rp1744
sI581
g1
((lp1745
I555
aI589
aI563
aI531
aI597
aI605
aI606
atp1746
Rp1747
sI582
g1
((lp1748
I583
aI597
aI575
atp1749
Rp1750
sI583
g1
((lp1751
I595
aI597
aI582
atp1752
Rp1753
sI584
g1
((lp1754
I585
aI611
atp1755
Rp1756
sI585
g1
((lp1757
I584
aI586
aI611
atp1758
Rp1759
sI586
g1
((lp1760
I585
aI587
aI612
atp1761
Rp1762
sI587
g1
((lp1763
I576
aI560
aI586
aI612
atp1764
Rp1765
sI588
g1
((lp1766
I604
aI561
aI580
atp1767
Rp1768
sI589
g1
((lp1769
I563
aI564
aI581
aI590
aI607
atp1770
Rp1771
sI590
g1
((lp1772
I608
aI565
aI589
aI566
aI591
atp1773
Rp1774
sI591
g1
((lp1775
I592
aI568
aI616
aI590
aI567
atp1776
Rp1777
sI592
g1
((lp1778
I616
aI593
aI570
aI569
aI591
atp1779
Rp1780
sI593
g1
((lp1781
I592
aI617
aI594
aI571
aI572
atp1782
Rp1783
sI594
g1
((lp1784
I593
aI573
aI574
aI617
atp1785
Rp1786
sI595
g1
((lp1787
I597
aI583
atp1788
Rp1789
sI596
g1
((lp1790
I597
aI598
atp1791
Rp1792
sI597
g1
((lp1793
I641
aI651
aI685
aI529
aI530
aI710
aI553
aI557
aI686
aI562
aI575
aI581
aI582
aI583
aI595
aI596
aI598
aI599
aI605
aI609
aI610
aI630
atp1794
Rp1795
sI598
g1
((lp1796
I596
aI597
aI599
atp1797
Rp1798
sI599
g1
((lp1799
I609
aI597
aI598
atp1800
Rp1801
sI600
g1
((lp1802
I576
aI601
aI612
aI639
atp1803
Rp1804
sI601
g1
((lp1805
I576
aI613
aI618
aI619
aI620
aI621
aI600
atp1806
Rp1807
sI602
g1
((lp1808
I578
aI613
aI622
aI623
aI624
aI625
aI603
atp1809
Rp1810
sI603
g1
((lp1811
I578
aI614
aI626
aI627
aI629
aI602
atp1812
Rp1813
sI604
g1
((lp1814
I640
aI588
aI615
atp1815
Rp1816
sI605
g1
((lp1817
I641
aI597
aI606
aI581
atp1818
Rp1819
sI606
g1
((lp1820
I632
aI631
aI605
aI581
aI607
atp1821
Rp1822
sI607
g1
((lp1823
I608
aI633
aI634
aI589
aI606
atp1824
Rp1825
sI608
g1
((lp1826
I616
aI635
aI636
aI590
aI607
atp1827
Rp1828
sI609
g1
((lp1829
I597
aI599
atp1830
Rp1831
sI610
g1
((lp1832
I597
aI630
atp1833
Rp1834
sI611
g1
((lp1835
I584
aI585
aI612
aI709
atp1836
Rp1837
sI612
g1
((lp1838
I611
aI586
aI587
aI664
aI661
aI662
aI663
aI600
aI639
atp1839
Rp1840
sI613
g1
((lp1841
I577
aI677
aI678
aI621
aI601
aI602
atp1842
Rp1843
sI614
g1
((lp1844
I579
aI679
aI680
aI649
aI615
aI629
aI603
atp1845
Rp1846
sI615
g1
((lp1847
I640
aI580
aI614
aI681
aI682
aI604
atp1848
Rp1849
sI616
g1
((lp1850
I608
aI617
aI653
aI591
aI592
aI787
aI636
atp1851
Rp1852
sI617
g1
((lp1853
I616
aI593
aI594
aI787
atp1854
Rp1855
sI618
g1
((lp1856
I601
aI619
aI639
atp1857
Rp1858
sI619
g1
((lp1859
I601
aI618
aI620
atp1860
Rp1861
sI620
g1
((lp1862
I601
aI619
aI621
atp1863
Rp1864
sI621
g1
((lp1865
I601
aI620
aI613
atp1866
Rp1867
sI622
g1
((lp1868
I602
aI623
atp1869
Rp1870
sI623
g1
((lp1871
I624
aI602
aI622
atp1872
Rp1873
sI624
g1
((lp1874
I625
aI602
aI623
atp1875
Rp1876
sI625
g1
((lp1877
I624
aI626
aI602
atp1878
Rp1879
sI626
g1
((lp1880
I625
aI603
aI627
atp1881
Rp1882
sI627
g1
((lp1883
I626
aI603
aI629
aI637
atp1884
Rp1885
sI628
g1
((lp1886
I640
aI638
atp1887
Rp1888
sI629
g1
((lp1889
I649
aI603
aI627
aI637
aI614
atp1890
Rp1891
sI630
g1
((lp1892
I610
aI651
aI597
atp1893
Rp1894
sI631
g1
((lp1895
I632
aI641
aI652
aI606
atp1896
Rp1897
sI632
g1
((lp1898
I633
aI644
aI645
aI606
aI631
atp1899
Rp1900
sI633
g1
((lp1901
I632
aI634
aI647
aI646
aI607
atp1902
Rp1903
sI634
g1
((lp1904
I633
aI635
aI607
atp1905
Rp1906
sI635
g1
((lp1907
I608
aI648
aI634
aI636
atp1908
Rp1909
sI636
g1
((lp1910
I616
aI608
aI635
aI653
atp1911
Rp1912
sI637
g1
((lp1913
I642
aI627
aI629
atp1914
Rp1915
sI638
g1
((lp1916
I640
aI628
atp1917
Rp1918
sI639
g1
((lp1919
I600
aI665
aI618
aI612
aI666
atp1920
Rp1921
sI640
g1
((lp1922
I615
aI650
aI683
aI628
aI604
aI638
atp1923
Rp1924
sI641
g1
((lp1925
I687
aI652
aI597
aI605
aI631
atp1926
Rp1927
sI642
g1
((lp1928
I649
aI637
atp1929
Rp1930
sI643
g1
((lp1931
I651
atp1932
Rp1933
sI644
g1
((lp1934
I632
aI652
aI645
atp1935
Rp1936
sI645
g1
((lp1937
I632
aI644
aI646
atp1938
Rp1939
sI646
g1
((lp1940
I633
aI645
aI647
atp1941
Rp1942
sI647
g1
((lp1943
I633
aI646
atp1944
Rp1945
sI648
g1
((lp1946
I635
aI653
atp1947
Rp1948
sI649
g1
((lp1949
I642
aI667
aI629
aI614
aI654
atp1950
Rp1951
sI650
g1
((lp1952
I640
aI668
atp1953
Rp1954
sI651
g1
((lp1955
I643
aI684
aI597
aI630
aI655
atp1956
Rp1957
sI652
g1
((lp1958
I656
aI641
aI644
aI669
aI631
atp1959
Rp1960
sI653
g1
((lp1961
I648
aI616
aI636
aI670
aI657
atp1962
Rp1963
sI654
g1
((lp1964
I649
aI658
atp1965
Rp1966
sI655
g1
((lp1967
I651
aI684
atp1968
Rp1969
sI656
g1
((lp1970
I660
aI652
atp1971
Rp1972
sI657
g1
((lp1973
I653
atp1974
Rp1975
sI658
g1
((lp1976
I667
aI654
aI671
atp1977
Rp1978
sI659
g1
((lp1979
I672
aI668
atp1980
Rp1981
sI660
g1
((lp1982
I656
aI676
aI669
atp1983
Rp1984
sI661
g1
((lp1985
I688
aI612
aI709
aI662
atp1986
Rp1987
sI662
g1
((lp1988
I612
aI661
aI663
atp1989
Rp1990
sI663
g1
((lp1991
I664
aI612
aI662
atp1992
Rp1993
sI664
g1
((lp1994
I665
aI612
aI663
atp1995
Rp1996
sI665
g1
((lp1997
I664
aI666
aI639
atp1998
Rp1999
sI666
g1
((lp2000
I665
aI639
atp2001
Rp2002
sI667
g1
((lp2003
I649
aI658
aI671
aI692
aI679
atp2004
Rp2005
sI668
g1
((lp2006
I672
aI650
aI659
aI683
aI693
atp2007
Rp2008
sI669
g1
((lp2009
I676
aI652
aI660
aI698
aI687
atp2010
Rp2011
sI670
g1
((lp2012
I691
aI787
aI653
atp2013
Rp2014
sI671
g1
((lp2015
I689
aI658
aI667
atp2016
Rp2017
sI672
g1
((lp2018
I673
aI659
aI668
atp2019
Rp2020
sI673
g1
((lp2021
I672
aI674
aI694
atp2022
Rp2023
sI674
g1
((lp2024
I673
atp2025
Rp2026
sI675
g1
((lp2027
I697
aI684
atp2028
Rp2029
sI676
g1
((lp2030
I690
aI660
aI669
atp2031
Rp2032
sI677
g1
((lp2033
I718
aI613
aI678
aI717
atp2034
Rp2035
sI678
g1
((lp2036
I720
aI719
aI677
aI613
atp2037
Rp2038
sI679
g1
((lp2039
I680
aI667
aI692
aI614
aI739
atp2040
Rp2041
sI680
g1
((lp2042
I681
aI722
aI723
aI614
aI679
atp2043
Rp2044
sI681
g1
((lp2045
I680
aI682
aI724
aI725
aI615
atp2046
Rp2047
sI682
g1
((lp2048
I681
aI683
aI727
aI726
aI615
atp2049
Rp2050
sI683
g1
((lp2051
I640
aI682
aI693
aI728
aI729
aI668
atp2052
Rp2053
sI684
g1
((lp2054
I675
aI651
aI685
aI655
aI697
aI730
aI731
atp2055
Rp2056
sI685
g1
((lp2057
I713
aI732
aI684
aI597
aI686
atp2058
Rp2059
sI686
g1
((lp2060
I714
aI685
aI710
aI597
atp2061
Rp2062
sI687
g1
((lp2063
I744
aI641
aI698
aI669
aI710
atp2064
Rp2065
sI688
g1
((lp2066
I661
aI709
atp2067
Rp2068
sI689
g1
((lp2069
I692
aI671
atp2070
Rp2071
sI690
g1
((lp2072
I698
aI676
atp2073
Rp2074
sI691
g1
((lp2075
I787
aI670
atp2076
Rp2077
sI692
g1
((lp2078
I689
aI721
aI667
aI700
aI679
atp2079
Rp2080
sI693
g1
((lp2081
I740
aI683
aI668
aI694
atp2082
Rp2083
sI694
g1
((lp2084
I673
aI740
aI693
aI695
atp2085
Rp2086
sI695
g1
((lp2087
I701
aI694
aI741
atp2088
Rp2089
sI696
g1
((lp2090
I697
aI706
aI743
atp2091
Rp2092
sI697
g1
((lp2093
I696
aI675
aI684
aI743
atp2094
Rp2095
sI698
g1
((lp2096
I733
aI690
aI707
aI669
aI687
atp2097
Rp2098
sI699
g1
((lp2099
I709
aI711
atp2100
Rp2101
sI700
g1
((lp2102
I712
aI692
atp2103
Rp2104
sI701
g1
((lp2105
I702
aI695
atp2106
Rp2107
sI702
g1
((lp2108
I741
aI701
aI703
atp2109
Rp2110
sI703
g1
((lp2111
I704
aI742
aI702
atp2112
Rp2113
sI704
g1
((lp2114
I705
aI742
aI703
atp2115
Rp2116
sI705
g1
((lp2117
I704
aI706
aI742
atp2118
Rp2119
sI706
g1
((lp2120
I696
aI705
aI742
atp2121
Rp2122
sI707
g1
((lp2123
I698
aI715
atp2124
Rp2125
sI708
g1
((lp2126
I787
aI716
atp2127
Rp2128
sI709
g1
((lp2129
I611
aI745
aI779
aI688
aI819
aI661
aI699
aI734
atp2130
Rp2131
sI710
g1
((lp2132
I744
aI714
aI686
aI687
aI820
aI597
atp2133
Rp2134
sI711
g1
((lp2135
I699
aI734
atp2136
Rp2137
sI712
g1
((lp2138
I721
aI700
aI735
atp2139
Rp2140
sI713
g1
((lp2141
I732
aI685
atp2142
Rp2143
sI714
g1
((lp2144
I686
aI710
atp2145
Rp2146
sI715
g1
((lp2147
I736
aI707
aI733
atp2148
Rp2149
sI716
g1
((lp2150
I738
aI787
aI708
atp2151
Rp2152
sI717
g1
((lp2153
I746
aI747
aI677
aI718
atp2154
Rp2155
sI718
g1
((lp2156
I677
aI749
aI748
aI717
aI719
atp2157
Rp2158
sI719
g1
((lp2159
I720
aI750
aI678
aI718
aI751
atp2160
Rp2161
sI720
g1
((lp2162
I752
aI753
aI678
aI719
atp2163
Rp2164
sI721
g1
((lp2165
I712
aI739
aI692
aI774
aI735
atp2166
Rp2167
sI722
g1
((lp2168
I680
aI775
aI723
aI739
atp2169
Rp2170
sI723
g1
((lp2171
I680
aI756
aI722
aI755
aI724
atp2172
Rp2173
sI724
g1
((lp2174
I681
aI723
aI725
aI758
aI757
atp2175
Rp2176
sI725
g1
((lp2177
I760
aI681
aI724
aI726
aI759
atp2178
Rp2179
sI726
g1
((lp2180
I761
aI682
aI725
aI762
aI727
atp2181
Rp2182
sI727
g1
((lp2183
I728
aI682
aI763
aI764
aI726
atp2184
Rp2185
sI728
g1
((lp2186
I729
aI683
aI765
aI766
aI727
atp2187
Rp2188
sI729
g1
((lp2189
I728
aI768
aI683
aI740
aI767
atp2190
Rp2191
sI730
g1
((lp2192
I776
aI731
aI684
aI743
atp2193
Rp2194
sI731
g1
((lp2195
I684
aI730
aI732
aI770
aI769
atp2196
Rp2197
sI732
g1
((lp2198
I771
aI713
aI731
aI685
atp2199
Rp2200
sI733
g1
((lp2201
I736
aI744
aI698
aI715
aI777
atp2202
Rp2203
sI734
g1
((lp2204
I745
aI709
aI711
atp2205
Rp2206
sI735
g1
((lp2207
I712
aI721
aI754
atp2208
Rp2209
sI736
g1
((lp2210
I715
aI772
aI733
atp2211
Rp2212
sI737
g1
((lp2213
I738
atp2214
Rp2215
sI738
g1
((lp2216
I737
aI778
aI787
aI716
atp2217
Rp2218
sI739
g1
((lp2219
I802
aI774
aI679
aI775
aI721
aI722
atp2220
Rp2221
sI740
g1
((lp2222
I768
aI803
aI741
aI693
aI694
aI729
atp2223
Rp2224
sI741
g1
((lp2225
I804
aI740
aI702
aI742
aI695
atp2226
Rp2227
sI742
g1
((lp2228
I704
aI705
aI706
aI741
aI743
aI805
aI703
atp2229
Rp2230
sI743
g1
((lp2231
I742
aI776
aI696
aI697
aI730
aI795
aI796
atp2232
Rp2233
sI744
g1
((lp2234
I777
aI821
aI733
aI710
aI687
atp2235
Rp2236
sI745
g1
((lp2237
I709
aI734
atp2238
Rp2239
sI746
g1
((lp2240
I747
aI717
atp2241
Rp2242
sI747
g1
((lp2243
I746
aI748
aI717
atp2244
Rp2245
sI748
g1
((lp2246
I747
aI749
aI718
atp2247
Rp2248
sI749
g1
((lp2249
I748
aI718
aI750
atp2250
Rp2251
sI750
g1
((lp2252
I719
aI749
aI751
atp2253
Rp2254
sI751
g1
((lp2255
I752
aI750
aI719
atp2256
Rp2257
sI752
g1
((lp2258
I720
aI753
aI751
atp2259
Rp2260
sI753
g1
((lp2261
I752
aI720
atp2262
Rp2263
sI754
g1
((lp2264
I774
aI735
atp2265
Rp2266
sI755
g1
((lp2267
I723
aI756
aI775
atp2268
Rp2269
sI756
g1
((lp2270
I755
aI757
aI723
atp2271
Rp2272
sI757
g1
((lp2273
I724
aI756
aI758
atp2274
Rp2275
sI758
g1
((lp2276
I724
aI757
aI759
atp2277
Rp2278
sI759
g1
((lp2279
I760
aI725
aI758
atp2280
Rp2281
sI760
g1
((lp2282
I761
aI725
aI759
atp2283
Rp2284
sI761
g1
((lp2285
I760
aI762
aI726
atp2286
Rp2287
sI762
g1
((lp2288
I761
aI763
aI726
atp2289
Rp2290
sI763
g1
((lp2291
I762
aI764
aI727
atp2292
Rp2293
sI764
g1
((lp2294
I763
aI765
aI727
atp2295
Rp2296
sI765
g1
((lp2297
I728
aI764
aI766
atp2298
Rp2299
sI766
g1
((lp2300
I728
aI765
aI767
atp2301
Rp2302
sI767
g1
((lp2303
I768
aI729
aI766
atp2304
Rp2305
sI768
g1
((lp2306
I729
aI740
aI767
atp2307
Rp2308
sI769
g1
((lp2309
I776
aI770
aI731
atp2310
Rp2311
sI770
g1
((lp2312
I769
aI771
aI731
atp2313
Rp2314
sI771
g1
((lp2315
I770
aI732
atp2316
Rp2317
sI772
g1
((lp2318
I736
aI777
atp2319
Rp2320
sI773
g1
((lp2321
I778
atp2322
Rp2323
sI774
g1
((lp2324
I721
aI754
aI739
aI780
aI793
atp2325
Rp2326
sI775
g1
((lp2327
I794
aI722
aI739
aI781
aI755
atp2328
Rp2329
sI776
g1
((lp2330
I769
aI743
aI782
aI791
aI792
aI730
atp2331
Rp2332
sI777
g1
((lp2333
I744
aI772
aI733
aI783
atp2334
Rp2335
sI778
g1
((lp2336
I786
aI738
aI787
aI773
aI822
atp2337
Rp2338
sI779
g1
((lp2339
I788
aI709
atp2340
Rp2341
sI780
g1
((lp2342
I789
aI774
atp2343
Rp2344
sI781
g1
((lp2345
I790
aI775
atp2346
Rp2347
sI782
g1
((lp2348
I776
atp2349
Rp2350
sI783
g1
((lp2351
I784
aI777
aI821
atp2352
Rp2353
sI784
g1
((lp2354
I785
aI821
aI783
atp2355
Rp2356
sI785
g1
((lp2357
I784
aI822
atp2358
Rp2359
sI786
g1
((lp2360
I778
atp2361
Rp2362
sI787
g1
((lp2363
I738
aI708
aI616
aI617
aI778
aI716
aI1009
aI691
aI822
aI670
atp2364
Rp2365
sI788
g1
((lp2366
I819
aI779
aI797
atp2367
Rp2368
sI789
g1
((lp2369
I793
aI780
aI798
atp2370
Rp2371
sI790
g1
((lp2372
I794
aI781
aI799
atp2373
Rp2374
sI791
g1
((lp2375
I792
aI776
aI796
aI800
atp2376
Rp2377
sI792
g1
((lp2378
I776
aI791
atp2379
Rp2380
sI793
g1
((lp2381
I810
aI802
aI798
aI789
aI774
atp2382
Rp2383
sI794
g1
((lp2384
I811
aI802
aI775
aI790
aI799
atp2385
Rp2386
sI795
g1
((lp2387
I812
aI796
aI805
aI743
atp2388
Rp2389
sI796
g1
((lp2390
I800
aI809
aI795
aI743
aI791
atp2391
Rp2392
sI797
g1
((lp2393
I819
aI788
aI806
atp2394
Rp2395
sI798
g1
((lp2396
I793
aI789
aI807
atp2397
Rp2398
sI799
g1
((lp2399
I808
aI794
aI790
atp2400
Rp2401
sI800
g1
((lp2402
I796
aI791
atp2403
Rp2404
sI801
g1
((lp2405
I820
aI813
atp2406
Rp2407
sI802
g1
((lp2408
I739
aI840
aI810
aI811
aI793
aI794
atp2409
Rp2410
sI803
g1
((lp2411
I740
aI804
aI841
atp2412
Rp2413
sI804
g1
((lp2414
I842
aI803
aI805
aI741
atp2415
Rp2416
sI805
g1
((lp2417
I827
aI804
aI742
aI812
aI826
aI795
aI831
atp2418
Rp2419
sI806
g1
((lp2420
I819
aI797
atp2421
Rp2422
sI807
g1
((lp2423
I810
aI798
atp2424
Rp2425
sI808
g1
((lp2426
I811
aI799
atp2427
Rp2428
sI809
g1
((lp2429
I812
aI796
atp2430
Rp2431
sI810
g1
((lp2432
I793
aI802
aI815
aI829
aI807
atp2433
Rp2434
sI811
g1
((lp2435
I808
aI816
aI802
aI794
aI830
atp2436
Rp2437
sI812
g1
((lp2438
I809
aI795
aI805
atp2439
Rp2440
sI813
g1
((lp2441
I801
aI818
aI843
aI820
atp2442
Rp2443
sI814
g1
((lp2444
I819
aI823
atp2445
Rp2446
sI815
g1
((lp2447
I824
aI810
atp2448
Rp2449
sI816
g1
((lp2450
I825
aI811
atp2451
Rp2452
sI817
g1
((lp2453
I818
aI843
atp2454
Rp2455
sI818
g1
((lp2456
I817
aI843
aI813
atp2457
Rp2458
sI819
g1
((lp2459
I709
aI806
aI844
aI814
aI911
aI788
aI853
aI823
aI797
atp2460
Rp2461
sI820
g1
((lp2462
I864
aI801
aI866
aI867
aI710
aI865
aI872
aI873
aI843
aI813
aI821
atp2463
Rp2464
sI821
g1
((lp2465
I744
aI783
aI784
aI1009
aI820
aI822
atp2466
Rp2467
sI822
g1
((lp2468
I785
aI778
aI787
aI821
aI1009
atp2469
Rp2470
sI823
g1
((lp2471
I832
aI819
aI814
atp2472
Rp2473
sI824
g1
((lp2474
I833
aI829
aI815
atp2475
Rp2476
sI825
g1
((lp2477
I816
aI834
aI830
atp2478
Rp2479
sI826
g1
((lp2480
I835
aI827
aI805
aI831
atp2481
Rp2482
sI827
g1
((lp2483
I826
aI805
atp2484
Rp2485
sI828
g1
((lp2486
I843
aI837
atp2487
Rp2488
sI829
g1
((lp2489
I824
aI840
aI810
aI851
aI833
atp2490
Rp2491
sI830
g1
((lp2492
I840
aI825
aI834
aI811
aI852
atp2493
Rp2494
sI831
g1
((lp2495
I835
aI805
aI842
aI847
aI848
aI826
atp2496
Rp2497
sI832
g1
((lp2498
I844
aI823
atp2499
Rp2500
sI833
g1
((lp2501
I824
aI829
aI845
atp2502
Rp2503
sI834
g1
((lp2504
I825
aI846
aI830
atp2505
Rp2506
sI835
g1
((lp2507
I826
aI831
atp2508
Rp2509
sI836
g1
((lp2510
I849
aI837
atp2511
Rp2512
sI837
g1
((lp2513
I828
aI850
aI843
aI836
atp2514
Rp2515
sI838
g1
((lp2516
I912
aI839
atp2517
Rp2518
sI839
g1
((lp2519
I912
aI838
atp2520
Rp2521
sI840
g1
((lp2522
I802
aI882
aI851
aI852
aI829
aI830
atp2523
Rp2524
sI841
g1
((lp2525
I883
aI842
aI803
atp2526
Rp2527
sI842
g1
((lp2528
I804
aI841
aI847
aI884
aI856
aI831
atp2529
Rp2530
sI843
g1
((lp2531
I850
aI837
aI870
aI871
aI813
aI817
aI818
aI820
aI857
aI828
atp2532
Rp2533
sI844
g1
((lp2534
I832
aI819
atp2535
Rp2536
sI845
g1
((lp2537
I833
aI851
atp2538
Rp2539
sI846
g1
((lp2540
I834
aI852
atp2541
Rp2542
sI847
g1
((lp2543
I848
aI842
aI831
atp2544
Rp2545
sI848
g1
((lp2546
I831
aI847
atp2547
Rp2548
sI849
g1
((lp2549
I850
aI836
atp2550
Rp2551
sI850
g1
((lp2552
I849
aI843
aI837
atp2553
Rp2554
sI851
g1
((lp2555
I840
aI868
aI845
aI854
aI829
atp2556
Rp2557
sI852
g1
((lp2558
I840
aI869
aI830
aI846
aI855
atp2559
Rp2560
sI853
g1
((lp2561
I858
aI819
atp2562
Rp2563
sI854
g1
((lp2564
I859
aI851
atp2565
Rp2566
sI855
g1
((lp2567
I860
aI852
atp2568
Rp2569
sI856
g1
((lp2570
I842
aI861
atp2571
Rp2572
sI857
g1
((lp2573
I843
aI863
atp2574
Rp2575
sI858
g1
((lp2576
I874
aI853
aI911
atp2577
Rp2578
sI859
g1
((lp2579
I875
aI868
aI854
atp2580
Rp2581
sI860
g1
((lp2582
I876
aI869
aI855
atp2583
Rp2584
sI861
g1
((lp2585
I856
aI884
aI877
atp2586
Rp2587
sI862
g1
((lp2588
I879
atp2589
Rp2590
sI863
g1
((lp2591
I857
aI870
atp2592
Rp2593
sI864
g1
((lp2594
I872
aI865
aI820
aI880
atp2595
Rp2596
sI865
g1
((lp2597
I864
aI866
aI820
atp2598
Rp2599
sI866
g1
((lp2600
I865
aI867
aI820
atp2601
Rp2602
sI867
g1
((lp2603
I873
aI866
aI820
aI881
atp2604
Rp2605
sI868
g1
((lp2606
I851
aI875
aI882
aI859
aI899
atp2607
Rp2608
sI869
g1
((lp2609
I852
aI876
aI882
aI900
aI860
atp2610
Rp2611
sI870
g1
((lp2612
I889
aI843
aI871
aI890
aI863
atp2613
Rp2614
sI871
g1
((lp2615
I872
aI843
aI870
aI903
atp2616
Rp2617
sI872
g1
((lp2618
I864
aI871
aI880
aI820
aI891
aI892
atp2619
Rp2620
sI873
g1
((lp2621
I904
aI1009
aI867
aI820
aI881
atp2622
Rp2623
sI874
g1
((lp2624
I858
aI911
atp2625
Rp2626
sI875
g1
((lp2627
I859
aI868
aI885
atp2628
Rp2629
sI876
g1
((lp2630
I860
aI869
aI886
atp2631
Rp2632
sI877
g1
((lp2633
I884
aI861
aI887
atp2634
Rp2635
sI878
g1
((lp2636
I879
atp2637
Rp2638
sI879
g1
((lp2639
I862
aI878
aI902
atp2640
Rp2641
sI880
g1
((lp2642
I872
aI864
atp2643
Rp2644
sI881
g1
((lp2645
I873
aI867
atp2646
Rp2647
sI882
g1
((lp2648
I929
aI899
aI900
aI869
aI840
aI868
atp2649
Rp2650
sI883
g1
((lp2651
I841
aI930
aI884
atp2652
Rp2653
sI884
g1
((lp2654
I931
aI842
aI907
aI877
aI883
aI887
aI861
atp2655
Rp2656
sI885
g1
((lp2657
I875
aI899
atp2658
Rp2659
sI886
g1
((lp2660
I900
aI876
atp2661
Rp2662
sI887
g1
((lp2663
I884
aI877
atp2664
Rp2665
sI888
g1
((lp2666
I902
atp2667
Rp2668
sI889
g1
((lp2669
I890
aI870
atp2670
Rp2671
sI890
g1
((lp2672
I889
aI870
aI903
atp2673
Rp2674
sI891
g1
((lp2675
I872
aI892
aI903
atp2676
Rp2677
sI892
g1
((lp2678
I872
aI891
atp2679
Rp2680
sI893
g1
((lp2681
I926
aI894
aI911
atp2682
Rp2683
sI894
g1
((lp2684
I893
aI926
aI895
atp2685
Rp2686
sI895
g1
((lp2687
I896
aI894
aI927
atp2688
Rp2689
sI896
g1
((lp2690
I897
aI927
aI895
atp2691
Rp2692
sI897
g1
((lp2693
I896
aI928
aI898
atp2694
Rp2695
sI898
g1
((lp2696
I928
aI897
atp2697
Rp2698
sI899
g1
((lp2699
I905
aI882
aI868
aI885
aI918
atp2700
Rp2701
sI900
g1
((lp2702
I882
aI919
aI906
aI886
aI869
atp2703
Rp2704
sI901
g1
((lp2705
I908
aI933
aI902
atp2706
Rp2707
sI902
g1
((lp2708
I888
aI920
aI879
aI901
aI909
atp2709
Rp2710
sI903
g1
((lp2711
I890
aI891
aI917
aI910
aI871
atp2712
Rp2713
sI904
g1
((lp2714
I921
aI1009
aI873
atp2715
Rp2716
sI905
g1
((lp2717
I913
aI899
atp2718
Rp2719
sI906
g1
((lp2720
I914
aI900
atp2721
Rp2722
sI907
g1
((lp2723
I932
aI884
atp2724
Rp2725
sI908
g1
((lp2726
I901
aI933
atp2727
Rp2728
sI909
g1
((lp2729
I915
aI902
atp2730
Rp2731
sI910
g1
((lp2732
I916
aI903
atp2733
Rp2734
sI911
g1
((lp2735
I874
aI978
aI819
aI858
aI893
aI926
atp2736
Rp2737
sI912
g1
((lp2738
I945
aI981
aI838
aI839
atp2739
Rp2740
sI913
g1
((lp2741
I905
aI922
aI918
atp2742
Rp2743
sI914
g1
((lp2744
I906
aI923
aI919
atp2745
Rp2746
sI915
g1
((lp2747
I920
aI924
aI909
atp2748
Rp2749
sI916
g1
((lp2750
I917
aI910
atp2751
Rp2752
sI917
g1
((lp2753
I916
aI903
atp2754
Rp2755
sI918
g1
((lp2756
I913
aI922
aI899
aI937
aI929
atp2757
Rp2758
sI919
g1
((lp2759
I929
aI914
aI923
aI900
aI938
atp2760
Rp2761
sI920
g1
((lp2762
I939
aI915
aI924
aI933
aI902
atp2763
Rp2764
sI921
g1
((lp2765
I904
aI1009
aI941
atp2766
Rp2767
sI922
g1
((lp2768
I913
aI934
aI918
atp2769
Rp2770
sI923
g1
((lp2771
I914
aI935
aI919
atp2772
Rp2773
sI924
g1
((lp2774
I920
aI915
aI925
atp2775
Rp2776
sI925
g1
((lp2777
I940
aI924
atp2778
Rp2779
sI926
g1
((lp2780
I927
aI979
aI893
aI894
aI911
atp2781
Rp2782
sI927
g1
((lp2783
I928
aI896
aI979
aI926
aI895
atp2784
Rp2785
sI928
g1
((lp2786
I897
aI898
aI980
aI942
aI927
atp2787
Rp2788
sI929
g1
((lp2789
I965
aI937
aI938
aI882
aI918
aI919
atp2790
Rp2791
sI930
g1
((lp2792
I883
aI931
aI966
atp2793
Rp2794
sI931
g1
((lp2795
I884
aI930
aI932
aI983
atp2796
Rp2797
sI932
g1
((lp2798
I931
aI907
aI933
aI983
atp2799
Rp2800
sI933
g1
((lp2801
I932
aI901
aI967
aI939
aI908
aI920
atp2802
Rp2803
sI934
g1
((lp2804
I937
aI922
atp2805
Rp2806
sI935
g1
((lp2807
I938
aI923
atp2808
Rp2809
sI936
g1
((lp2810
I940
atp2811
Rp2812
sI937
g1
((lp2813
I982
aI929
aI918
aI934
aI951
atp2814
Rp2815
sI938
g1
((lp2816
I952
aI929
aI919
aI959
aI935
atp2817
Rp2818
sI939
g1
((lp2819
I920
aI960
aI940
aI933
atp2820
Rp2821
sI940
g1
((lp2822
I936
aI953
aI939
aI925
aI961
atp2823
Rp2824
sI941
g1
((lp2825
I968
aI1009
aI955
aI921
atp2826
Rp2827
sI942
g1
((lp2828
I928
aI943
atp2829
Rp2830
sI943
g1
((lp2831
I944
aI942
atp2832
Rp2833
sI944
g1
((lp2834
I945
aI980
aI943
atp2835
Rp2836
sI945
g1
((lp2837
I944
aI912
aI980
atp2838
Rp2839
sI946
g1
((lp2840
I947
aI982
atp2841
Rp2842
sI947
g1
((lp2843
I946
aI948
aI982
atp2844
Rp2845
sI948
g1
((lp2846
I947
aI949
aI982
atp2847
Rp2848
sI949
g1
((lp2849
I948
aI982
aI950
atp2850
Rp2851
sI950
g1
((lp2852
I949
aI982
aI951
atp2853
Rp2854
sI951
g1
((lp2855
I937
aI982
aI950
atp2856
Rp2857
sI952
g1
((lp2858
I938
aI956
atp2859
Rp2860
sI953
g1
((lp2861
I940
aI957
atp2862
Rp2863
sI954
g1
((lp2864
I968
aI955
atp2865
Rp2866
sI955
g1
((lp2867
I968
aI954
aI941
atp2868
Rp2869
sI956
g1
((lp2870
I952
aI962
aI959
atp2871
Rp2872
sI957
g1
((lp2873
I953
aI961
atp2874
Rp2875
sI958
g1
((lp2876
I968
aI964
atp2877
Rp2878
sI959
g1
((lp2879
I972
aI962
aI956
aI938
aI965
atp2880
Rp2881
sI960
g1
((lp2882
I961
aI970
aI939
aI971
aI967
atp2883
Rp2884
sI961
g1
((lp2885
I960
aI940
aI957
atp2886
Rp2887
sI962
g1
((lp2888
I969
aI956
aI959
atp2889
Rp2890
sI963
g1
((lp2891
I964
atp2892
Rp2893
sI964
g1
((lp2894
I968
aI963
aI974
aI958
atp2895
Rp2896
sI965
g1
((lp2897
I929
aI994
aI972
aI982
aI959
atp2898
Rp2899
sI966
g1
((lp2900
I930
aI995
aI983
atp2901
Rp2902
sI967
g1
((lp2903
I960
aI933
aI970
aI976
aI983
aI985
aI986
aI988
atp2904
Rp2905
sI968
g1
((lp2906
I964
aI997
aI941
aI974
aI1009
aI954
aI955
aI958
atp2907
Rp2908
sI969
g1
((lp2909
I962
aI972
atp2910
Rp2911
sI970
g1
((lp2912
I960
aI971
aI967
atp2913
Rp2914
sI971
g1
((lp2915
I960
aI970
atp2916
Rp2917
sI972
g1
((lp2918
I969
aI959
aI965
aI987
aI975
atp2919
Rp2920
sI973
g1
((lp2921
I977
aI996
aI974
atp2922
Rp2923
sI974
g1
((lp2924
I968
aI996
aI964
aI973
atp2925
Rp2926
sI975
g1
((lp2927
I984
aI972
atp2928
Rp2929
sI976
g1
((lp2930
I967
atp2931
Rp2932
sI977
g1
((lp2933
I973
aI989
atp2934
Rp2935
sI978
g1
((lp2936
I979
aI1038
aI911
atp2937
Rp2938
sI979
g1
((lp2939
I978
aI980
aI1038
aI926
aI927
atp2940
Rp2941
sI980
g1
((lp2942
I928
aI1039
aI944
aI945
aI979
aI981
atp2943
Rp2944
sI981
g1
((lp2945
I912
aI980
aI982
aI1039
atp2946
Rp2947
sI982
g1
((lp2948
I994
aI965
aI937
aI1026
aI946
aI947
aI948
aI981
aI950
aI951
aI949
atp2949
Rp2950
sI983
g1
((lp2951
I1027
aI931
aI932
aI966
aI967
aI1002
aI995
aI988
atp2952
Rp2953
sI984
g1
((lp2954
I987
aI990
aI975
atp2955
Rp2956
sI985
g1
((lp2957
I986
aI991
aI988
aI967
atp2958
Rp2959
sI986
g1
((lp2960
I985
aI967
atp2961
Rp2962
sI987
g1
((lp2963
I984
aI1001
aI994
aI972
aI990
atp2964
Rp2965
sI988
g1
((lp2966
I985
aI991
aI967
aI983
atp2967
Rp2968
sI989
g1
((lp2969
I977
aI996
aI1004
aI993
atp2970
Rp2971
sI990
g1
((lp2972
I984
aI987
aI998
atp2973
Rp2974
sI991
g1
((lp2975
I985
aI988
aI999
atp2976
Rp2977
sI992
g1
((lp2978
I993
atp2979
Rp2980
sI993
g1
((lp2981
I992
aI1003
aI989
atp2982
Rp2983
sI994
g1
((lp2984
I1001
aI987
aI965
aI982
aI1017
atp2985
Rp2986
sI995
g1
((lp2987
I1018
aI966
aI983
atp2988
Rp2989
sI996
g1
((lp2990
I997
aI1004
aI973
aI974
aI1040
aI989
atp2991
Rp2992
sI997
g1
((lp2993
I968
aI1009
aI996
aI1040
atp2994
Rp2995
sI998
g1
((lp2996
I1001
aI990
atp2997
Rp2998
sI999
g1
((lp2999
I1002
aI991
atp3000
Rp3001
sI1000
g1
((lp3002
I1003
atp3003
Rp3004
sI1001
g1
((lp3005
I994
aI987
aI1012
aI1005
aI998
atp3006
Rp3007
sI1002
g1
((lp3008
I999
aI1013
aI1006
aI983
atp3009
Rp3010
sI1003
g1
((lp3011
I1000
aI993
aI1004
aI1008
aI1040
atp3012
Rp3013
sI1004
g1
((lp3014
I1040
aI1003
aI996
aI989
atp3015
Rp3016
sI1005
g1
((lp3017
I1001
aI1010
atp3018
Rp3019
sI1006
g1
((lp3020
I1002
aI1011
atp3021
Rp3022
sI1007
g1
((lp3023
I1008
aI1040
atp3024
Rp3025
sI1008
g1
((lp3026
I1040
aI1003
aI1007
atp3027
Rp3028
sI1009
g1
((lp3029
I997
aI904
aI873
aI941
aI1040
aI968
aI787
aI821
aI822
aI921
atp3030
Rp3031
sI1010
g1
((lp3032
I1012
aI1005
aI1014
atp3033
Rp3034
sI1011
g1
((lp3035
I1013
aI1006
aI1015
atp3036
Rp3037
sI1012
g1
((lp3038
I1001
aI1010
aI1020
aI1014
aI1017
atp3039
Rp3040
sI1013
g1
((lp3041
I1027
aI1002
aI1011
aI1015
atp3042
Rp3043
sI1014
g1
((lp3044
I1010
aI1019
aI1012
atp3045
Rp3046
sI1015
g1
((lp3047
I1011
aI1013
atp3048
Rp3049
sI1016
g1
((lp3050
I1040
aI1024
atp3051
Rp3052
sI1017
g1
((lp3053
I1020
aI994
aI1012
aI1026
aI1031
atp3054
Rp3055
sI1018
g1
((lp3056
I1032
aI1027
aI995
atp3057
Rp3058
sI1019
g1
((lp3059
I1020
aI1014
atp3060
Rp3061
sI1020
g1
((lp3062
I1017
aI1019
aI1012
aI1029
aI1025
atp3063
Rp3064
sI1021
g1
((lp3065
I1033
aI1027
aI1022
atp3066
Rp3067
sI1022
g1
((lp3068
I1033
aI1021
aI1023
atp3069
Rp3070
sI1023
g1
((lp3071
I1024
aI1034
aI1022
atp3072
Rp3073
sI1024
g1
((lp3074
I1040
aI1016
aI1034
aI1023
atp3075
Rp3076
sI1025
g1
((lp3077
I1028
aI1020
atp3078
Rp3079
sI1026
g1
((lp3080
I1017
aI1039
aI1049
aI982
aI1031
atp3081
Rp3082
sI1027
g1
((lp3083
I1032
aI1033
aI1050
aI1013
aI983
aI1018
aI1021
atp3084
Rp3085
sI1028
g1
((lp3086
I1025
aI1029
aI1030
atp3087
Rp3088
sI1029
g1
((lp3089
I1036
aI1020
aI1028
aI1030
aI1031
atp3090
Rp3091
sI1030
g1
((lp3092
I1035
aI1028
aI1029
atp3093
Rp3094
sI1031
g1
((lp3095
I1017
aI1026
aI1036
aI1029
aI1044
atp3096
Rp3097
sI1032
g1
((lp3098
I1018
aI1027
aI1045
atp3099
Rp3100
sI1033
g1
((lp3101
I1051
aI1034
aI1027
aI1021
aI1022
atp3102
Rp3103
sI1034
g1
((lp3104
I1040
aI1033
aI1051
aI1024
aI1023
atp3105
Rp3106
sI1035
g1
((lp3107
I1036
aI1030
atp3108
Rp3109
sI1036
g1
((lp3110
I1042
aI1035
aI1029
aI1037
aI1031
atp3111
Rp3112
sI1037
g1
((lp3113
I1041
aI1036
atp3114
Rp3115
sI1038
g1
((lp3116
I978
aI979
aI1039
atp3117
Rp3118
sI1039
g1
((lp3119
I1049
aI1026
aI980
aI981
aI1038
atp3120
Rp3121
sI1040
g1
((lp3122
I1024
aI996
aI997
aI1034
aI1003
aI1004
aI1007
aI1008
aI1009
aI1016
aI1051
atp3123
Rp3124
sI1041
g1
((lp3125
I1042
aI1043
aI1037
atp3126
Rp3127
sI1042
g1
((lp3128
I1041
aI1043
aI1036
aI1044
aI1047
atp3129
Rp3130
sI1043
g1
((lp3131
I1041
aI1042
aI1046
atp3132
Rp3133
sI1044
g1
((lp3134
I1055
aI1049
aI1042
aI1031
aI1047
atp3135
Rp3136
sI1045
g1
((lp3137
I1032
aI1056
aI1050
atp3138
Rp3139
sI1046
g1
((lp3140
I1043
aI1047
atp3141
Rp3142
sI1047
g1
((lp3143
I1048
aI1042
aI1044
aI1053
aI1046
atp3144
Rp3145
sI1048
g1
((lp3146
I1052
aI1047
atp3147
Rp3148
sI1049
g1
((lp3149
I1026
aI1055
aI1044
aI1039
atp3150
Rp3151
sI1050
g1
((lp3152
I1027
aI1056
aI1051
aI1045
atp3153
Rp3154
sI1051
g1
((lp3155
I1040
aI1033
aI1050
aI1034
atp3156
Rp3157
sI1052
g1
((lp3158
I1048
aI1053
aI1054
atp3159
Rp3160
sI1053
g1
((lp3161
I1058
aI1055
aI1052
aI1054
aI1047
atp3162
Rp3163
sI1054
g1
((lp3164
I1057
aI1052
aI1053
atp3165
Rp3166
sI1055
g1
((lp3167
I1049
aI1058
aI1044
aI1053
atp3168
Rp3169
sI1056
g1
((lp3170
I1050
aI1045
atp3171
Rp3172
sI1057
g1
((lp3173
I1058
aI1054
atp3174
Rp3175
sI1058
g1
((lp3176
I1057
aI1059
aI1053
aI1055
atp3177
Rp3178
sI1059
g1
((lp3179
I1058
atp3180
Rp3181
sI1060
g1
((lp3182
I444
aI1061
atp3183
Rp3184
sI1061
g1
((lp3185
I1060
aI1062
atp3186
Rp3187
sI1062
g1
((lp3188
I1061
aI1063
atp3189
Rp3190
sI1063
g1
((lp3191
I408
aI1062
atp3192
Rp3193
s.